
lab4-1.elf:     file format elf32-littlenios2
lab4-1.elf
architecture: nios2, flags 0x00000112:
EXEC_P, HAS_SYMS, D_PAGED
start address 0x000001b8

Program Header:
    LOAD off    0x00001000 vaddr 0x00000000 paddr 0x00000000 align 2**12
         filesz 0x00000020 memsz 0x00000020 flags r-x
    LOAD off    0x00001020 vaddr 0x00000020 paddr 0x00000020 align 2**12
         filesz 0x0000ce9c memsz 0x0000ce9c flags r-x
    LOAD off    0x0000debc vaddr 0x0000cebc paddr 0x0000edd0 align 2**12
         filesz 0x00001f14 memsz 0x00001f14 flags rw-
    LOAD off    0x00010ce4 vaddr 0x00010ce4 paddr 0x00010ce4 align 2**12
         filesz 0x00000000 memsz 0x007a1770 flags rw-

Sections:
Idx Name          Size      VMA       LMA       File off  Algn
  0 .entry        00000020  00000000  00000000  00001000  2**5
                  CONTENTS, ALLOC, LOAD, READONLY, CODE
  1 .exceptions   00000198  00000020  00000020  00001020  2**2
                  CONTENTS, ALLOC, LOAD, READONLY, CODE
  2 .text         0000c5b0  000001b8  000001b8  000011b8  2**2
                  CONTENTS, ALLOC, LOAD, READONLY, CODE
  3 .rodata       00000754  0000c768  0000c768  0000d768  2**2
                  CONTENTS, ALLOC, LOAD, READONLY, DATA
  4 .rwdata       00001f14  0000cebc  0000edd0  0000debc  2**2
                  CONTENTS, ALLOC, LOAD, DATA, SMALL_DATA
  5 .bss          007a1a4a  00010ce4  00010ce4  00010ce4  2**2
                  ALLOC, SMALL_DATA
  6 .comment      00000026  00000000  00000000  0000fdd0  2**0
                  CONTENTS, READONLY
  7 .debug_aranges 00000d18  00000000  00000000  0000fdf8  2**3
                  CONTENTS, READONLY, DEBUGGING
  8 .debug_pubnames 00001f6c  00000000  00000000  00010b10  2**0
                  CONTENTS, READONLY, DEBUGGING
  9 .debug_info   000260cf  00000000  00000000  00012a7c  2**0
                  CONTENTS, READONLY, DEBUGGING
 10 .debug_abbrev 000078df  00000000  00000000  00038b4b  2**0
                  CONTENTS, READONLY, DEBUGGING
 11 .debug_line   000133ac  00000000  00000000  0004042a  2**0
                  CONTENTS, READONLY, DEBUGGING
 12 .debug_frame  00001fa4  00000000  00000000  000537d8  2**2
                  CONTENTS, READONLY, DEBUGGING
 13 .debug_str    000022b4  00000000  00000000  0005577c  2**0
                  CONTENTS, READONLY, DEBUGGING
 14 .debug_loc    000061c0  00000000  00000000  00057a30  2**0
                  CONTENTS, READONLY, DEBUGGING
 15 .debug_alt_sim_info 00000050  00000000  00000000  0005dbf0  2**2
                  CONTENTS, READONLY, DEBUGGING
 16 .debug_ranges 00000520  00000000  00000000  0005dc40  2**3
                  CONTENTS, READONLY, DEBUGGING
 17 .thread_model 00000003  00000000  00000000  000623d0  2**0
                  CONTENTS, READONLY
 18 .cpu          00000003  00000000  00000000  000623d3  2**0
                  CONTENTS, READONLY
 19 .qsys         00000001  00000000  00000000  000623d6  2**0
                  CONTENTS, READONLY
 20 .simulation_enabled 00000001  00000000  00000000  000623d7  2**0
                  CONTENTS, READONLY
 21 .sysid_hash   00000004  00000000  00000000  000623d8  2**0
                  CONTENTS, READONLY
 22 .sysid_base   00000004  00000000  00000000  000623dc  2**0
                  CONTENTS, READONLY
 23 .sysid_time   00000004  00000000  00000000  000623e0  2**0
                  CONTENTS, READONLY
 24 .stderr_dev   00000009  00000000  00000000  000623e4  2**0
                  CONTENTS, READONLY
 25 .stdin_dev    00000009  00000000  00000000  000623ed  2**0
                  CONTENTS, READONLY
 26 .stdout_dev   00000009  00000000  00000000  000623f6  2**0
                  CONTENTS, READONLY
 27 .sopc_system_name 0000000b  00000000  00000000  000623ff  2**0
                  CONTENTS, READONLY
 28 .quartus_project_dir 00000026  00000000  00000000  0006240a  2**0
                  CONTENTS, READONLY
 29 .jdi          00004ec8  00000000  00000000  00062430  2**0
                  CONTENTS, READONLY
 30 .sopcinfo     00105ea3  00000000  00000000  000672f8  2**0
                  CONTENTS, READONLY
SYMBOL TABLE:
00000000 l    d  .entry	00000000 .entry
00000020 l    d  .exceptions	00000000 .exceptions
000001b8 l    d  .text	00000000 .text
0000c768 l    d  .rodata	00000000 .rodata
0000cebc l    d  .rwdata	00000000 .rwdata
00010ce4 l    d  .bss	00000000 .bss
00000000 l    d  .comment	00000000 .comment
00000000 l    d  .debug_aranges	00000000 .debug_aranges
00000000 l    d  .debug_pubnames	00000000 .debug_pubnames
00000000 l    d  .debug_info	00000000 .debug_info
00000000 l    d  .debug_abbrev	00000000 .debug_abbrev
00000000 l    d  .debug_line	00000000 .debug_line
00000000 l    d  .debug_frame	00000000 .debug_frame
00000000 l    d  .debug_str	00000000 .debug_str
00000000 l    d  .debug_loc	00000000 .debug_loc
00000000 l    d  .debug_alt_sim_info	00000000 .debug_alt_sim_info
00000000 l    d  .debug_ranges	00000000 .debug_ranges
000001f0 l       .text	00000000 alt_after_alt_main
00000000 l    df *ABS*	00000000 alt_irq_handler.c
00000000 l    df *ABS*	00000000 PS2_ISR.c
00000000 l    df *ABS*	00000000 audio_ISR.c
00000000 l    df *ABS*	00000000 filter.c
00000000 l    df *ABS*	00000000 globals.c
00000000 l    df *ABS*	00000000 interval_timer_ISR.c
00000000 l    df *ABS*	00000000 media_interrupt_HAL.c
0000cbde l     O .rodata	00000010 C.74.2589
00000000 l    df *ABS*	00000000 pushbutton_ISR.c
00000000 l    df *ABS*	00000000 libgcc2.c
00000000 l    df *ABS*	00000000 libgcc2.c
00000000 l    df *ABS*	00000000 libgcc2.c
00000000 l    df *ABS*	00000000 fp-bit.c
00000000 l    df *ABS*	00000000 fp-bit.c
00000000 l    df *ABS*	00000000 dp-bit.c
00002b78 l     F .text	00000410 _fpadd_parts
00000000 l    df *ABS*	00000000 dp-bit.c
00000000 l    df *ABS*	00000000 dp-bit.c
00000000 l    df *ABS*	00000000 dp-bit.c
00000000 l    df *ABS*	00000000 dp-bit.c
00000000 l    df *ABS*	00000000 dp-bit.c
00000000 l    df *ABS*	00000000 lib2-divmod.c
000035d8 l     F .text	0000007c udivmodsi4
00000000 l    df *ABS*	00000000 libgcc2.c
00000000 l    df *ABS*	00000000 libgcc2.c
00000000 l    df *ABS*	00000000 fp-bit.c
00000000 l    df *ABS*	00000000 fp-bit.c
00000000 l    df *ABS*	00000000 dp-bit.c
00000000 l    df *ABS*	00000000 dp-bit.c
00000000 l    df *ABS*	00000000 dp-bit.c
00000000 l    df *ABS*	00000000 memcpy.c
00000000 l    df *ABS*	00000000 memset.c
00000000 l    df *ABS*	00000000 alt_irq_register.c
00000000 l    df *ABS*	00000000 alt_irq_vars.c
00000000 l    df *ABS*	00000000 alt_load.c
00004258 l     F .text	0000006c alt_load_section
00000000 l    df *ABS*	00000000 alt_main.c
00000000 l    df *ABS*	00000000 alt_printf.c
00000000 l    df *ABS*	00000000 alt_putchar.c
00000000 l    df *ABS*	00000000 alt_sys_init.c
0000cfbc l     O .rwdata	00001060 JTAG_UART
0000e01c l     O .rwdata	00000030 AV_Config
0000e04c l     O .rwdata	00000030 Audio
0000e07c l     O .rwdata	0000002c Char_LCD_16x2
0000e0a8 l     O .rwdata	0000003c Ethernet
0000e0e4 l     O .rwdata	0000002c IrDA_UART
0000e110 l     O .rwdata	0000002c Expansion_JP1
0000e13c l     O .rwdata	0000002c Expansion_JP2
0000e168 l     O .rwdata	0000002c Green_LEDs
0000e194 l     O .rwdata	0000002c HEX3_HEX0
0000e1c0 l     O .rwdata	0000002c HEX7_HEX4
0000e1ec l     O .rwdata	0000002c Pushbuttons
0000e218 l     O .rwdata	0000002c Red_LEDs
0000e244 l     O .rwdata	0000002c Slider_Switches
0000e270 l     O .rwdata	00000038 PS2_Port
0000e2a8 l     O .rwdata	0000002c Serial_Port
0000e2d4 l     O .rwdata	00000034 USB
0000e308 l     O .rwdata	00000048 VGA_Char_Buffer
0000e350 l     O .rwdata	00000054 VGA_Pixel_Buffer
0000e3a4 l     O .rwdata	0000002c SD_Card
000049fc l     F .text	00000038 alt_dev_reg
00000000 l    df *ABS*	00000000 altera_avalon_jtag_uart_fd.c
00000000 l    df *ABS*	00000000 altera_avalon_jtag_uart_init.c
00004c34 l     F .text	0000022c altera_avalon_jtag_uart_irq
00004e60 l     F .text	000000b0 altera_avalon_jtag_uart_timeout
00000000 l    df *ABS*	00000000 altera_avalon_jtag_uart_ioctl.c
00000000 l    df *ABS*	00000000 altera_avalon_jtag_uart_read.c
00000000 l    df *ABS*	00000000 altera_avalon_jtag_uart_write.c
00000000 l    df *ABS*	00000000 altera_avalon_timer_sc.c
000054dc l     F .text	00000074 alt_avalon_timer_sc_irq
00000000 l    df *ABS*	00000000 altera_up_avalon_audio.c
00000000 l    df *ABS*	00000000 altera_up_avalon_character_lcd.c
00000000 l    df *ABS*	00000000 altera_up_avalon_ethernet.c
00000000 l    df *ABS*	00000000 altera_up_avalon_ethernet_low_level_driver.c
00000000 l    df *ABS*	00000000 altera_up_avalon_irda.c
00000000 l    df *ABS*	00000000 altera_up_avalon_parallel_port.c
00000000 l    df *ABS*	00000000 altera_up_avalon_ps2.c
00000000 l    df *ABS*	00000000 altera_up_avalon_rs232.c
00000000 l    df *ABS*	00000000 altera_up_avalon_video_character_buffer_with_dma.c
00000000 l    df *ABS*	00000000 altera_up_avalon_video_pixel_buffer_dma.c
00000000 l    df *ABS*	00000000 alt_alarm_start.c
00000000 l    df *ABS*	00000000 alt_close.c
00008fc8 l     F .text	00000060 alt_get_errno
00000000 l    df *ABS*	00000000 alt_dcache_flush_all.c
00000000 l    df *ABS*	00000000 alt_dev.c
00009044 l     F .text	0000002c alt_dev_null_write
00000000 l    df *ABS*	00000000 alt_dev_llist_insert.c
00009124 l     F .text	00000060 alt_get_errno
00000000 l    df *ABS*	00000000 alt_do_ctors.c
00000000 l    df *ABS*	00000000 alt_do_dtors.c
00000000 l    df *ABS*	00000000 alt_errno.c
00000000 l    df *ABS*	00000000 alt_find_dev.c
00000000 l    df *ABS*	00000000 alt_icache_flush_all.c
00000000 l    df *ABS*	00000000 alt_io_redirect.c
00009310 l     F .text	000000c4 alt_open_fd
00000000 l    df *ABS*	00000000 alt_open.c
0000944c l     F .text	000000dc alt_file_locked
000096b0 l     F .text	00000060 alt_get_errno
00000000 l    df *ABS*	00000000 alt_release_fd.c
00000000 l    df *ABS*	00000000 alt_tick.c
00000000 l    df *ABS*	00000000 alt_usleep.c
00000000 l    df *ABS*	00000000 altera_nios2_qsys_irq.c
00000000 l    df *ABS*	00000000 alt_busy_sleep.c
00000000 l    df *ABS*	00000000 alt_find_file.c
00000000 l    df *ABS*	00000000 alt_get_fd.c
00000000 l    df *ABS*	00000000 alt_icache_flush.c
00000000 l    df *ABS*	00000000 atexit.c
00000000 l    df *ABS*	00000000 exit.c
00000000 l    df *ABS*	00000000 impure.c
0000e578 l     O .rwdata	00000400 impure_data
00000000 l    df *ABS*	00000000 int_errno.c
00000000 l    df *ABS*	00000000 memcmp.c
00000000 l    df *ABS*	00000000 putc.c
00000000 l    df *ABS*	00000000 strcmp.c
00000000 l    df *ABS*	00000000 strlen.c
00000000 l    df *ABS*	00000000 wbuf.c
00000000 l    df *ABS*	00000000 wsetup.c
00000000 l    df *ABS*	00000000 __atexit.c
00000000 l    df *ABS*	00000000 __call_atexit.c
0000a490 l     F .text	00000004 register_fini
00000000 l    df *ABS*	00000000 fflush.c
00000000 l    df *ABS*	00000000 findfp.c
0000a874 l     F .text	00000058 std
0000a980 l     F .text	00000008 __fp_lock
0000a988 l     F .text	00000008 __fp_unlock
00000000 l    df *ABS*	00000000 mallocr.c
00000000 l    df *ABS*	00000000 fwalk.c
00000000 l    df *ABS*	00000000 makebuf.c
00000000 l    df *ABS*	00000000 mallocr.c
00000000 l    df *ABS*	00000000 sbrkr.c
00000000 l    df *ABS*	00000000 stdio.c
00000000 l    df *ABS*	00000000 writer.c
00000000 l    df *ABS*	00000000 closer.c
00000000 l    df *ABS*	00000000 fclose.c
00000000 l    df *ABS*	00000000 fstatr.c
00000000 l    df *ABS*	00000000 isattyr.c
00000000 l    df *ABS*	00000000 lseekr.c
00000000 l    df *ABS*	00000000 readr.c
00000000 l    df *ABS*	00000000 alt_exit.c
0000bf64 l     F .text	00000040 alt_sim_halt
00000000 l    df *ABS*	00000000 alt_fstat.c
0000c098 l     F .text	00000060 alt_get_errno
00000000 l    df *ABS*	00000000 alt_isatty.c
0000c1b8 l     F .text	00000060 alt_get_errno
00000000 l    df *ABS*	00000000 alt_lseek.c
0000c308 l     F .text	00000060 alt_get_errno
00000000 l    df *ABS*	00000000 alt_malloc_lock.c
00000000 l    df *ABS*	00000000 alt_read.c
0000c4c8 l     F .text	00000060 alt_get_errno
00000000 l    df *ABS*	00000000 alt_sbrk.c
0000edcc l     O .rwdata	00000004 heap_end
00000000 l    df *ABS*	00000000 alt_write.c
0000c704 l     F .text	00000060 alt_get_errno
0000be04 g     F .text	00000070 _isatty_r
000042c4 g     F .text	0000006c alt_main
00008478 g     F .text	000003d0 alt_up_pixel_buffer_dma_draw_vline
00000c6c g     F .text	00000060 interval_timer_ISR
00006cbc g     F .text	00000058 alt_up_ps2_disable_read_interrupt
007b21c4 g     O .bss	00000100 alt_irq
0000be74 g     F .text	00000078 _lseek_r
0000edd0 g       *ABS*	00000000 __flash_rwdata_start
00005e60 g     F .text	00000034 alt_up_character_lcd_send_cmd
00010cec g     O .bss	00000001 byte2
000023e4 g     F .text	00000680 __divdi3
00005850 g     F .text	00000070 alt_up_audio_read_fifo_avail
007b2454 g       *ABS*	00000000 __alt_heap_start
000058c0 g     F .text	00000070 alt_up_audio_record_r
00010ced g     O .bss	00000001 byte3
0000ba40 g     F .text	00000068 __sseek
0000a8dc g     F .text	000000a4 __sinit
0000a0d4 g     F .text	00000130 __swbuf_r
0000769c g     F .text	00000114 alt_up_char_buffer_string
00006ad4 g     F .text	00000034 read_CE_bit
00001f70 g     F .text	00000100 run_command
0000a9dc g     F .text	00000068 __sfmoreglue
0000c388 g     F .text	00000020 __malloc_unlock
00006e68 g     F .text	000000b0 alt_up_ps2_read_data_byte_timeout
000073a4 g     F .text	00000090 alt_up_rs232_read_fd
000075cc g     F .text	000000d0 alt_up_char_buffer_draw
000057c8 g     F .text	00000088 alt_up_audio_reset_audio_core
00010cee g     O .bss	00000001 byte1
0000a9cc g     F .text	00000010 _cleanup
00001b00 g     F .text	00000210 setMouseBounds
0000cebc g     O .rwdata	00000100 cursor_shape
0000784c g     F .text	000001a0 alt_up_pixel_buffer_dma_draw
00000000  w      *UND*	00000000 __errno
00005de4 g     F .text	0000007c get_DDRAM_addr
0000ed8c g     O .rwdata	00000004 right_addr
0000780c g     F .text	00000040 alt_up_pixel_buffer_dma_open_dev
00000000 g     F .entry	0000001c __reset
00000020 g       *ABS*	00000000 __flash_exceptions_start
0000bd90 g     F .text	00000074 _fstat_r
00010d2c g     O .bss	00000004 errno
000035a0 g     F .text	00000038 __make_dp
0000578c g     F .text	0000003c alt_up_audio_write_interrupt_pending
00010d1c g     O .bss	00000004 alt_argv
00016d80 g       *ABS*	00000000 _gp
00009914 g     F .text	00000030 usleep
000079ec g     F .text	00000058 alt_up_pixel_buffer_dma_change_back_buffer_address
0000e3f8 g     O .rwdata	00000180 alt_fd_list
00010ce4 g     O .bss	00000004 eq
0000924c g     F .text	00000094 alt_find_dev
00003ee0 g     F .text	000000a0 memcpy
00005ff8 g     F .text	0000004c alt_up_character_lcd_write_fd
000077b0 g     F .text	0000005c alt_up_char_buffer_clear
0000a9c0 g     F .text	0000000c _cleanup_r
000093d4 g     F .text	00000078 alt_io_redirect
0000c768 g       *ABS*	00000000 __DTOR_END__
00006960 g     F .text	00000090 alt_up_irda_write_fd
00007330 g     F .text	00000074 alt_up_rs232_read_data
0000ed90 g     O .rwdata	00000004 left_addr
00010cef g     O .bss	00000001 valid_byte3
00005d24 g     F .text	00000060 alt_up_audio_read_fifo_head
00007a9c g     F .text	00000034 alt_up_pixel_buffer_dma_check_swap_buffers_status
00006748 g     F .text	0000003c alt_up_irda_get_used_space_in_read_FIFO
00005078 g     F .text	00000224 altera_avalon_jtag_uart_read
00000000  w      *UND*	00000000 malloc
00003714 g     F .text	00000008 __udivsi3
0000c0f8 g     F .text	000000c0 isatty
000064a0 g     F .text	00000044 alt_up_ethernet_reg_write
00008128 g     F .text	00000350 alt_up_pixel_buffer_dma_draw_hline
000066f0 g     F .text	00000058 alt_up_irda_disable_read_interrupt
00002340 g     F .text	000000a4 __fixunsdfsi
00010cf0 g     O .bss	00000001 cnt
00009c68 g     F .text	00000090 alt_icache_flush
00010d30 g     O .bss	00000004 __malloc_top_pad
0000b9c8 g     F .text	00000070 _sbrk_r
003e1804 g     O .bss	00000020 up_dev
0000890c g     F .text	000000d0 helper_plot_pixel
00010cf1 g     O .bss	00000001 flag_denoise
0000beec g     F .text	00000078 _read_r
00010cf2 g     O .bss	00000001 command
0000edac g     O .rwdata	00000004 alt_max_fd
00007298 g     F .text	00000050 alt_up_rs232_check_parity
00005d84 g     F .text	00000060 alt_up_audio_write_fifo_head
00006314 g     F .text	00000110 alt_up_ethernet_init
00003ce0 g     F .text	00000138 __unpack_d
0000bc6c g     F .text	00000110 _fclose_r
00006b08 g     F .text	00000034 read_num_bytes_available
0000a840 g     F .text	00000034 fflush
00010d34 g     O .bss	00000004 __malloc_max_sbrked_mem
00004018 g     F .text	000001c0 alt_irq_register
00006a70 g     F .text	00000034 read_RI_bit
00002a64 g     F .text	00000054 __extendsfdf2
00003008 g     F .text	00000074 __adddf3
00007ad0 g     F .text	00000164 alt_up_pixel_buffer_dma_clear_screen
0000c218 g     F .text	000000f0 lseek
0000edc0 g     O .rwdata	00000004 _global_impure_ptr
007b2454 g       *ABS*	00000000 __bss_end
00007c34 g     F .text	000004f4 alt_up_pixel_buffer_dma_draw_box
00009808 g     F .text	0000010c alt_tick
003e1824 g     O .bss	001e8480 r_buf_Denoise
0c000000 g       *ABS*	00000000 __alt_mem_Flash_flash_data
000055d8 g     F .text	00000040 alt_up_audio_open_dev
00006b70 g     F .text	0000002c read_data_byte
0000a9a8 g     F .text	00000018 __fp_lock_all
000018b4 g     F .text	0000024c mouse_color
00005a14 g     F .text	00000070 alt_up_audio_play_r
00009770 g     F .text	00000098 alt_alarm_stop
00006aa4 g     F .text	00000030 read_RE_bit
00010d14 g     O .bss	00000004 alt_irq_active
00006784 g     F .text	00000040 alt_up_irda_get_available_space_in_write_FIFO
000000ec g     F .exceptions	000000cc alt_irq_handler
0000e3d0 g     O .rwdata	00000028 alt_dev_null
00003904 g     F .text	000000c8 __unpack_f
000062e0 g     F .text	00000034 alt_up_character_lcd_cursor_blink_on
00010cf3 g     O .bss	00000001 flag_mouse
00010d10 g     O .bss	00000002 y_axis_mouse
00006a30 g     F .text	00000040 alt_up_parallel_port_open_dev
00006d14 g     F .text	00000078 alt_up_ps2_write_data_byte
00009028 g     F .text	0000001c alt_dcache_flush_all
00008848 g     F .text	000000c4 alt_up_pixel_buffer_dma_draw_rectangle
000034c8 g     F .text	000000d8 __fixdfsi
007b2124 g     O .bss	000000a0 rects
0000edd0 g       *ABS*	00000000 __ram_rwdata_end
00002070 g     F .text	00000180 command_det
0000eda4 g     O .rwdata	00000008 alt_dev_list
0000c5e4 g     F .text	00000120 write
00009ebc g     F .text	000000e8 _putc_r
000089dc g     F .text	0000039c alt_up_pixel_buffer_dma_draw_line
0000cebc g       *ABS*	00000000 __ram_rodata_end
0000bfc4 g     F .text	000000d4 fstat
00007434 g     F .text	00000094 alt_up_rs232_write_fd
00000000 g       *ABS*	00000000 __alt_mem_SDRAM
0000371c g     F .text	00000008 __umodsi3
0000c768 g     O .rodata	00000100 coef
007b2454 g       *ABS*	00000000 end
00007088 g     F .text	000000a8 alt_up_ps2_write_fd
000037a4 g     F .text	00000160 __pack_f
000067c4 g     F .text	00000050 alt_up_irda_check_parity
00007508 g     F .text	00000084 alt_up_char_buffer_init
00010f04 g     O .bss	001e8480 r_buf
00004b7c g     F .text	000000b8 altera_avalon_jtag_uart_init
00010ce8 g     O .bss	00000002 flag_play
0000c764 g       *ABS*	00000000 __CTOR_LIST__
00800000 g       *ABS*	00000000 __alt_stack_pointer
00005550 g     F .text	00000088 alt_avalon_timer_sc_init
00003724 g     F .text	00000080 __clzsi2
0000529c g     F .text	00000240 altera_avalon_jtag_uart_write
0000a8cc g     F .text	00000004 __sfp_lock_acquire
00005f08 g     F .text	00000078 alt_up_character_lcd_write
0000ac60 g     F .text	00000314 _free_r
00004330 g     F .text	00000258 alt_printf
0000a494 g     F .text	000001b0 __call_exitprocs
0000edc8 g     O .rwdata	00000004 __malloc_sbrk_base
000001b8 g     F .text	0000003c _start
00010d24 g     O .bss	00000004 _alt_tick_rate
00005bf8 g     F .text	0000012c alt_up_audio_write_fifo
00010d28 g     O .bss	00000004 _alt_nticks
0000c3a8 g     F .text	00000120 read
000045fc g     F .text	00000400 alt_sys_init
0000616c g     F .text	000000b0 alt_up_character_lcd_shift_display
00005af4 g     F .text	00000104 alt_up_audio_read_fifo
00010cea g     O .bss	00000002 flag_is_playing
0000a35c g     F .text	00000134 __register_exitproc
00010d12 g     O .bss	00000002 x_axis_mouse
00005700 g     F .text	00000050 alt_up_audio_disable_write_interrupt
00006f94 g     F .text	00000058 alt_up_ps2_clear_fifo
00007258 g     F .text	00000040 alt_up_rs232_get_available_space_in_write_FIFO
00000a98 g     F .text	000001d4 filter
0000621c g     F .text	00000090 alt_up_character_lcd_erase_pos
00004f10 g     F .text	00000074 altera_avalon_jtag_uart_close
0000cebc g       *ABS*	00000000 __ram_rwdata_start
00010cf4 g     O .bss	00000001 valid_byte2
0000c768 g       *ABS*	00000000 __ram_rodata_start
00010edc g     O .bss	00000028 __malloc_current_mallinfo
0000ed94 g     O .rwdata	00000004 out_addr
00004a34 g     F .text	00000058 altera_avalon_jtag_uart_read_fd
00009bb0 g     F .text	000000b8 alt_get_fd
00009964 g     F .text	0000012c alt_busy_sleep
00003e18 g     F .text	000000c8 __fpcmp_parts_d
0000bbfc g     F .text	00000070 _close_r
00010ddc g     O .bss	00000100 mem
000056b4 g     F .text	0000004c alt_up_audio_enable_write_interrupt
00009d44 g     F .text	00000074 memcmp
00004ae4 g     F .text	00000048 altera_avalon_jtag_uart_close_fd
00010d3c g     O .bss	00000050 means
007b2454 g       *ABS*	00000000 __alt_stack_base
00004b2c g     F .text	00000050 altera_avalon_jtag_uart_ioctl_fd
0000669c g     F .text	00000054 alt_up_irda_enable_read_interrupt
0000a220 g     F .text	0000013c __swsetup_r
00005664 g     F .text	00000050 alt_up_audio_disable_read_interrupt
0000aa44 g     F .text	000000f0 __sfp
0000e978 g     O .rwdata	00000408 __malloc_av_
0000a8d8 g     F .text	00000004 __sinit_lock_release
0000307c g     F .text	000003c4 __muldf3
0000bb24 g     F .text	00000060 __sread
000071c4 g     F .text	00000058 alt_up_rs232_disable_read_interrupt
00009a90 g     F .text	00000120 alt_find_file
00009070 g     F .text	000000b4 alt_dev_llist_insert
0000c368 g     F .text	00000020 __malloc_lock
0000c528 g     F .text	000000bc sbrk
00000714 g     F .text	00000384 take_mean
0000a644 g     F .text	000001fc _fflush_r
00010ce4 g       *ABS*	00000000 __bss_start
00003f80 g     F .text	00000098 memset
00000ccc g     F .text	00000be8 main
000059a0 g     F .text	00000074 alt_up_audio_write_fifo_space
00010d20 g     O .bss	00000004 alt_envp
00010d38 g     O .bss	00000004 __malloc_max_total_mem
00007a44 g     F .text	00000058 alt_up_pixel_buffer_dma_swap_buffers
0000758c g     F .text	00000040 alt_up_char_buffer_open_dev
00004a8c g     F .text	00000058 altera_avalon_jtag_uart_write_fd
0000a204 g     F .text	0000001c __swbuf
000060bc g     F .text	000000b0 alt_up_character_lcd_shift_cursor
0000ba38 g     F .text	00000008 __sclose
00800000 g       *ABS*	00000000 __alt_heap_limit
0000bd7c g     F .text	00000014 fclose
00006f18 g     F .text	0000007c alt_up_ps2_read_data_byte
00010cf8 g     O .bss	00000004 timeout
007b22c4 g     O .bss	00000190 _atexit0
0000b288 g     F .text	00000740 _malloc_r
0000edb0 g     O .rwdata	00000004 alt_errno
0000b03c g     F .text	000000b8 _fwalk
00006814 g     F .text	00000048 alt_up_irda_write_data
00007130 g     F .text	00000040 alt_up_ps2_open_dev
00009db8 g     F .text	00000104 putc
00003654 g     F .text	00000060 __divsi3
0000cbf0 g     O .rodata	00000014 __thenan_df
00005ec8 g     F .text	00000040 alt_up_character_lcd_open_dev
0000ab34 g     F .text	0000012c _malloc_trim_r
00006c68 g     F .text	00000054 alt_up_ps2_enable_read_interrupt
0000c768 g       *ABS*	00000000 __CTOR_END__
00005e94 g     F .text	00000034 alt_up_character_lcd_init
00009fa4 g     F .text	000000bc strcmp
0000c768 g       *ABS*	00000000 __flash_rodata_start
005c9ca4 g     O .bss	001e8480 l_buf_Denoise
0000c768 g       *ABS*	00000000 __DTOR_LIST__
000074c8 g     F .text	00000040 alt_up_rs232_open_dev
000045c8 g     F .text	00000034 alt_irq_init
00009710 g     F .text	00000060 alt_release_fd
00006b3c g     F .text	00000034 read_data_valid
000062ac g     F .text	00000034 alt_up_character_lcd_cursor_off
0000cc04 g     O .rodata	00000100 __clz_tab
00009cf8 g     F .text	00000014 atexit
00006dfc g     F .text	0000006c alt_up_ps2_write_data_byte_with_ack
0000bb84 g     F .text	00000078 _write_r
000021f0 g     F .text	000000b8 pushbutton_ISR
00010d08 g     O .bss	00000002 all_drawn
000001f4 g     F .text	0000018c PS2_ISR
0000edbc g     O .rwdata	00000004 _impure_ptr
00010cfc g     O .bss	00000004 buf_index_play
00010d18 g     O .bss	00000004 alt_argc
000091e8 g     F .text	00000064 _do_dtors
0000ed88 g     O .rwdata	00000004 config_reg
00000020 g       .exceptions	00000000 alt_irq_entry
0000a990 g     F .text	00000018 __fp_unlock_all
00010d0c g     O .bss	00000004 rect_th
0000ed9c g     O .rwdata	00000008 alt_fs_list
00007170 g     F .text	00000054 alt_up_rs232_enable_read_interrupt
00005930 g     F .text	00000070 alt_up_audio_record_l
000072e8 g     F .text	00000048 alt_up_rs232_write_data
000064e4 g     F .text	000000e0 alt_up_ethernet_phy_reg_read
00000020 g       *ABS*	00000000 __ram_exceptions_start
0000edd0 g       *ABS*	00000000 _edata
007b2454 g       *ABS*	00000000 _end
000001b8 g       *ABS*	00000000 __ram_exceptions_end
00004f84 g     F .text	000000f4 altera_avalon_jtag_uart_ioctl
00000380 g     F .text	00000394 audio_ISR
001f9384 g     O .bss	001e8480 l_buf
00005a84 g     F .text	00000070 alt_up_audio_play_l
0000baa8 g     F .text	0000007c __swrite
0000edc4 g     O .rwdata	00000004 __malloc_trim_threshold
00009944 g     F .text	00000020 altera_nios2_qsys_irq_init
00009d0c g     F .text	00000038 exit
0000685c g     F .text	00000074 alt_up_irda_read_data
0000af74 g     F .text	000000c8 _fwalk_reent
00002ab8 g     F .text	000000c0 __floatunsisf
00006b9c g     F .text	000000cc alt_up_ps2_init
000036b4 g     F .text	00000060 __modsi3
00800000 g       *ABS*	00000000 __alt_data_end
00000020 g     F .exceptions	00000000 alt_exception
0000a8d0 g     F .text	00000004 __sfp_lock_release
00005f80 g     F .text	00000078 alt_up_character_lcd_string
000069f0 g     F .text	00000040 alt_up_irda_open_dev
0000ed84 g     O .rwdata	00000004 amp_cal
0000ed80 g     O .rwdata	00000002 new_record_flag
0000bfa4 g     F .text	00000020 _exit
00008d78 g     F .text	00000154 alt_alarm_start
000022a8 g     F .text	00000098 __muldi3
0000b0f4 g     F .text	00000194 __smakebuf_r
00006d8c g     F .text	00000070 alt_up_ps2_wait_for_ack
0000a060 g     F .text	00000074 strlen
00006424 g     F .text	00000040 alt_up_ethernet_open_dev
00009528 g     F .text	00000188 open
00003440 g     F .text	00000088 __gedf2
00004588 g     F .text	00000040 alt_putchar
00010d00 g     O .bss	00000004 buf_index_record
00010d8c g     O .bss	00000050 heights
000092e0 g     F .text	00000030 alt_icache_flush_all
000065c4 g     F .text	000000d8 alt_up_ethernet_phy_reg_write
00006044 g     F .text	00000078 alt_up_character_lcd_set_cursor_pos
0000ed98 g     O .rwdata	00000004 alt_priority_mask
00006fec g     F .text	0000009c alt_up_ps2_read_fd
00002f88 g     F .text	00000080 __subdf3
000068d0 g     F .text	00000090 alt_up_irda_read_fd
0000edb4 g     O .rwdata	00000008 alt_alarm_list
00009184 g     F .text	00000064 _do_ctors
0000721c g     F .text	0000003c alt_up_rs232_get_used_space_in_read_FIFO
00001d10 g     F .text	00000260 Mouse_ISR
00008ecc g     F .text	000000fc close
00010d04 g     O .bss	00000001 valid_byte1
000041d8 g     F .text	00000080 alt_load
00006464 g     F .text	0000003c alt_up_ethernet_reg_read
00005618 g     F .text	0000004c alt_up_audio_enable_read_interrupt
000039cc g     F .text	00000314 __pack_d
00000000  w      *UND*	00000000 free
0000a8d4 g     F .text	00000004 __sinit_lock_acquire
00005750 g     F .text	0000003c alt_up_audio_read_interrupt_pending



Disassembly of section .entry:

00000000 <__reset>:
#if NIOS2_ICACHE_SIZE > 0 && defined(ALT_ALLOW_CODE_AT_RESET) && !defined(ALT_SIM_OPTIMIZE)
    /* Assume the instruction cache size is always a power of two. */
#if NIOS2_ICACHE_SIZE > 0x8000
    movhi r2, %hi(NIOS2_ICACHE_SIZE)
#else
    movui r2, NIOS2_ICACHE_SIZE
   0:	00840014 	movui	r2,4096
#endif

0:
    initi r2
   4:	1001483a 	initi	r2
    addi r2, r2, -NIOS2_ICACHE_LINE_SIZE
   8:	10bff804 	addi	r2,r2,-32
    bgt r2, zero, 0b
   c:	00bffd16 	blt	zero,r2,4 <__reset+0x4>
 * Jump to the _start entry point in the .text section if reset code
 * is allowed or if optimizing for RTL simulation.
 */
#if defined(ALT_ALLOW_CODE_AT_RESET) || defined(ALT_SIM_OPTIMIZE)
    /* Jump to the _start entry point in the .text section. */
    movhi r1, %hi(_start)
  10:	00400034 	movhi	at,0
    ori r1, r1, %lo(_start)
  14:	08406e14 	ori	at,at,440
    jmp r1
  18:	0800683a 	jmp	at
  1c:	00000000 	call	0 <__reset>

Disassembly of section .exceptions:

00000020 <alt_exception>:
         * Process an exception.  For all exceptions we must preserve all
         * caller saved registers on the stack (See the Nios2 ABI
         * documentation for details).
         */

        addi  sp, sp, -76
  20:	deffed04 	addi	sp,sp,-76

#endif

#endif

        stw   ra,  0(sp)
  24:	dfc00015 	stw	ra,0(sp)
        /*
         * Leave a gap in the stack frame at 4(sp) for the muldiv handler to
         * store zero into.
         */

        stw   r1,   8(sp)
  28:	d8400215 	stw	at,8(sp)
        stw   r2,  12(sp)
  2c:	d8800315 	stw	r2,12(sp)
        stw   r3,  16(sp)
  30:	d8c00415 	stw	r3,16(sp)
        stw   r4,  20(sp)
  34:	d9000515 	stw	r4,20(sp)
        stw   r5,  24(sp)
  38:	d9400615 	stw	r5,24(sp)
        stw   r6,  28(sp)
  3c:	d9800715 	stw	r6,28(sp)
        stw   r7,  32(sp)
  40:	d9c00815 	stw	r7,32(sp)

        rdctl r5, estatus
  44:	000b307a 	rdctl	r5,estatus

        stw   r8,  36(sp)
  48:	da000915 	stw	r8,36(sp)
        stw   r9,  40(sp)
  4c:	da400a15 	stw	r9,40(sp)
        stw   r10, 44(sp)
  50:	da800b15 	stw	r10,44(sp)
        stw   r11, 48(sp)
  54:	dac00c15 	stw	r11,48(sp)
        stw   r12, 52(sp)
  58:	db000d15 	stw	r12,52(sp)
        stw   r13, 56(sp)
  5c:	db400e15 	stw	r13,56(sp)
        stw   r14, 60(sp)
  60:	db800f15 	stw	r14,60(sp)
        stw   r15, 64(sp)
  64:	dbc01015 	stw	r15,64(sp)
        /*
         * ea-4 contains the address of the instruction being executed
         * when the exception occured. For interrupt exceptions, we will
         * will be re-issue the isntruction. Store it in 72(sp)
         */
        stw   r5,  68(sp)  /* estatus */
  68:	d9401115 	stw	r5,68(sp)
        addi  r15, ea, -4  /* instruction that caused exception */
  6c:	ebffff04 	addi	r15,ea,-4
        stw   r15,  72(sp)
  70:	dbc01215 	stw	r15,72(sp)
#else
        /*
         * Test to see if the exception was a software exception or caused 
         * by an external interrupt, and vector accordingly.
         */
        rdctl r4, ipending
  74:	0009313a 	rdctl	r4,ipending
        andi  r2, r5, 1
  78:	2880004c 	andi	r2,r5,1
        beq   r2, zero, .Lnot_irq
  7c:	10000326 	beq	r2,zero,8c <alt_exception+0x6c>
        beq   r4, zero, .Lnot_irq
  80:	20000226 	beq	r4,zero,8c <alt_exception+0x6c>
        /*
         * Now that all necessary registers have been preserved, call 
         * alt_irq_handler() to process the interrupts.
         */

        call alt_irq_handler
  84:	00000ec0 	call	ec <alt_irq_handler>

        .section .exceptions.irqreturn, "xa"

        br    .Lexception_exit
  88:	00000306 	br	98 <alt_exception+0x78>
         * upon completion, so we write ea (address of instruction *after*
         * the one where the exception occured) into 72(sp). The actual
         * instruction that caused the exception is written in r2, which these
         * handlers will utilize.
         */
        stw   ea,  72(sp)  /* Don't re-issue */
  8c:	df401215 	stw	ea,72(sp)
        ldw   r2, -4(ea)   /* Instruction that caused exception */
  90:	e8bfff17 	ldw	r2,-4(ea)
#ifdef NIOS2_HAS_DEBUG_STUB
       /*
        *  Either tell the user now (if there is a debugger attached) or go into
        *  the debug monitor which will loop until a debugger is attached.
        */
        break
  94:	003da03a 	break	0
        /* 
         * Restore the saved registers, so that all general purpose registers 
         * have been restored to their state at the time the interrupt occured.
         */

        ldw   r5,  68(sp)
  98:	d9401117 	ldw	r5,68(sp)
        ldw   ea,  72(sp)  /* This becomes the PC once eret is executed */
  9c:	df401217 	ldw	ea,72(sp)
        ldw   ra,   0(sp)
  a0:	dfc00017 	ldw	ra,0(sp)

        wrctl estatus, r5
  a4:	2801707a 	wrctl	estatus,r5

        ldw   r1,   8(sp)
  a8:	d8400217 	ldw	at,8(sp)
        ldw   r2,  12(sp)
  ac:	d8800317 	ldw	r2,12(sp)
        ldw   r3,  16(sp)
  b0:	d8c00417 	ldw	r3,16(sp)
        ldw   r4,  20(sp)
  b4:	d9000517 	ldw	r4,20(sp)
        ldw   r5,  24(sp)
  b8:	d9400617 	ldw	r5,24(sp)
        ldw   r6,  28(sp)
  bc:	d9800717 	ldw	r6,28(sp)
        ldw   r7,  32(sp)
  c0:	d9c00817 	ldw	r7,32(sp)
#ifdef ALT_STACK_CHECK
        ldw   et, %gprel(alt_exception_old_stack_limit)(gp)
#endif
#endif

        ldw   r8,  36(sp)
  c4:	da000917 	ldw	r8,36(sp)
        ldw   r9,  40(sp)
  c8:	da400a17 	ldw	r9,40(sp)
        ldw   r10, 44(sp)
  cc:	da800b17 	ldw	r10,44(sp)
        ldw   r11, 48(sp)
  d0:	dac00c17 	ldw	r11,48(sp)
        ldw   r12, 52(sp)
  d4:	db000d17 	ldw	r12,52(sp)
        ldw   r13, 56(sp)
  d8:	db400e17 	ldw	r13,56(sp)
        ldw   r14, 60(sp)
  dc:	db800f17 	ldw	r14,60(sp)
        ldw   r15, 64(sp)
  e0:	dbc01017 	ldw	r15,64(sp)
#endif

        ldw   sp,  76(sp)

#else
        addi  sp, sp, 76
  e4:	dec01304 	addi	sp,sp,76

        /*
         * Return to the interrupted instruction.
         */

        eret
  e8:	ef80083a 	eret

000000ec <alt_irq_handler>:
 * instruction is present if the macro ALT_CI_INTERRUPT_VECTOR defined.
 */

void alt_irq_handler (void) __attribute__ ((section (".exceptions")));
void alt_irq_handler (void)
{
  ec:	defff904 	addi	sp,sp,-28
  f0:	dfc00615 	stw	ra,24(sp)
  f4:	df000515 	stw	fp,20(sp)
  f8:	df000504 	addi	fp,sp,20
#ifndef NIOS2_EIC_PRESENT
static ALT_INLINE alt_u32 ALT_ALWAYS_INLINE alt_irq_pending (void)
{
  alt_u32 active;

  NIOS2_READ_IPENDING (active);
  fc:	0005313a 	rdctl	r2,ipending
 100:	e0bffc15 	stw	r2,-16(fp)

  return active;
 104:	e0bffc17 	ldw	r2,-16(fp)
   * Consider the case where the high priority interupt is asserted during
   * the interrupt entry sequence for a lower priority interrupt to see why
   * this is the case.
   */

  active = alt_irq_pending ();
 108:	e0bfff15 	stw	r2,-4(fp)

  do
  {
    i = 0;
 10c:	e03ffd15 	stw	zero,-12(fp)
    mask = 1;
 110:	00800044 	movi	r2,1
 114:	e0bffe15 	stw	r2,-8(fp)
     * called to clear the interrupt condition.
     */

    do
    {
      if (active & mask)
 118:	e0ffff17 	ldw	r3,-4(fp)
 11c:	e0bffe17 	ldw	r2,-8(fp)
 120:	1884703a 	and	r2,r3,r2
 124:	1005003a 	cmpeq	r2,r2,zero
 128:	1000171e 	bne	r2,zero,188 <alt_irq_handler+0x9c>
      { 
#ifdef ALT_ENHANCED_INTERRUPT_API_PRESENT
        alt_irq[i].handler(alt_irq[i].context); 
#else
        alt_irq[i].handler(alt_irq[i].context, i); 
 12c:	e0bffd17 	ldw	r2,-12(fp)
 130:	00c01ef4 	movhi	r3,123
 134:	18c87104 	addi	r3,r3,8644
 138:	100490fa 	slli	r2,r2,3
 13c:	10c5883a 	add	r2,r2,r3
 140:	11800017 	ldw	r6,0(r2)
 144:	e0bffd17 	ldw	r2,-12(fp)
 148:	00c01ef4 	movhi	r3,123
 14c:	18c87104 	addi	r3,r3,8644
 150:	100490fa 	slli	r2,r2,3
 154:	10c5883a 	add	r2,r2,r3
 158:	10800104 	addi	r2,r2,4
 15c:	11000017 	ldw	r4,0(r2)
 160:	e17ffd17 	ldw	r5,-12(fp)
 164:	303ee83a 	callr	r6
#ifndef NIOS2_EIC_PRESENT
static ALT_INLINE alt_u32 ALT_ALWAYS_INLINE alt_irq_pending (void)
{
  alt_u32 active;

  NIOS2_READ_IPENDING (active);
 168:	0005313a 	rdctl	r2,ipending
 16c:	e0bffb15 	stw	r2,-20(fp)

  return active;
 170:	e0bffb17 	ldw	r2,-20(fp)
      mask <<= 1;
      i++;

    } while (1);

    active = alt_irq_pending ();
 174:	e0bfff15 	stw	r2,-4(fp)
    
  } while (active);
 178:	e0bfff17 	ldw	r2,-4(fp)
 17c:	1004c03a 	cmpne	r2,r2,zero
 180:	103fe21e 	bne	r2,zero,10c <alt_irq_handler+0x20>
 184:	00000706 	br	1a4 <alt_irq_handler+0xb8>
#else
        alt_irq[i].handler(alt_irq[i].context, i); 
#endif
        break;
      }
      mask <<= 1;
 188:	e0bffe17 	ldw	r2,-8(fp)
 18c:	1085883a 	add	r2,r2,r2
 190:	e0bffe15 	stw	r2,-8(fp)
      i++;
 194:	e0bffd17 	ldw	r2,-12(fp)
 198:	10800044 	addi	r2,r2,1
 19c:	e0bffd15 	stw	r2,-12(fp)

    } while (1);
 1a0:	003fdd06 	br	118 <alt_irq_handler+0x2c>
  /*
   * Notify the operating system that interrupt processing is complete.
   */ 

  ALT_OS_INT_EXIT();
}
 1a4:	e037883a 	mov	sp,fp
 1a8:	dfc00117 	ldw	ra,4(sp)
 1ac:	df000017 	ldw	fp,0(sp)
 1b0:	dec00204 	addi	sp,sp,8
 1b4:	f800283a 	ret

Disassembly of section .text:

000001b8 <_start>:
#if (NIOS2_NUM_OF_SHADOW_REG_SETS == 0)    
    /*
     * Now that the caches are initialized, set up the stack pointer.
     * The value provided by the linker is assumed to be correctly aligned.
     */
    movhi sp, %hi(__alt_stack_pointer)
     1b8:	06c02034 	movhi	sp,128
    ori sp, sp, %lo(__alt_stack_pointer)
     1bc:	dec00014 	ori	sp,sp,0

    /* Set up the global pointer. */
    movhi gp, %hi(_gp)
     1c0:	06800074 	movhi	gp,1
    ori gp, gp, %lo(_gp)
     1c4:	d69b6014 	ori	gp,gp,28032
 */
#ifndef ALT_SIM_OPTIMIZE
    /* Log that the BSS is about to be cleared. */
    ALT_LOG_PUTS(alt_log_msg_bss)

    movhi r2, %hi(__bss_start)
     1c8:	00800074 	movhi	r2,1
    ori r2, r2, %lo(__bss_start)
     1cc:	10833914 	ori	r2,r2,3300

    movhi r3, %hi(__bss_end)
     1d0:	00c01ef4 	movhi	r3,123
    ori r3, r3, %lo(__bss_end)
     1d4:	18c91514 	ori	r3,r3,9300

    beq r2, r3, 1f
     1d8:	10c00326 	beq	r2,r3,1e8 <_start+0x30>

0:
    stw zero, (r2)
     1dc:	10000015 	stw	zero,0(r2)
    addi r2, r2, 4
     1e0:	10800104 	addi	r2,r2,4
    bltu r2, r3, 0b
     1e4:	10fffd36 	bltu	r2,r3,1dc <_start+0x24>
     * section aren't defined until alt_load() has been called).
     */
    mov   et, zero
#endif

    call alt_load
     1e8:	00041d80 	call	41d8 <alt_load>

    /* Log that alt_main is about to be called. */
    ALT_LOG_PUTS(alt_log_msg_alt_main)

    /* Call the C entry point. It should never return. */
    call alt_main
     1ec:	00042c40 	call	42c4 <alt_main>

000001f0 <alt_after_alt_main>:

    /* Wait in infinite loop in case alt_main does return. */
alt_after_alt_main:
    br alt_after_alt_main
     1f0:	003fff06 	br	1f0 <alt_after_alt_main>

000001f4 <PS2_ISR>:
 * This routine checks which KEY has been pressed. If it is KEY1 or KEY2, it writes this 
 * value to the global variable key_pressed. If it is KEY3 then it loads the SW switch 
 * values and stores in the variable pattern
****************************************************************************************/
void PS2_ISR(struct alt_up_dev *up_dev, unsigned int id)
{
     1f4:	defffb04 	addi	sp,sp,-20
     1f8:	dfc00415 	stw	ra,16(sp)
     1fc:	df000315 	stw	fp,12(sp)
     200:	df000304 	addi	fp,sp,12
     204:	e13ffe15 	stw	r4,-8(fp)
     208:	e17fff15 	stw	r5,-4(fp)
	unsigned char PS2_data;

	/* check for PS/2 data--display on HEX displays */
	if (alt_up_ps2_read_data_byte (up_dev->PS2_dev, &PS2_data) == 0)
     20c:	e0bffe17 	ldw	r2,-8(fp)
     210:	11000317 	ldw	r4,12(r2)
     214:	e17ffd04 	addi	r5,fp,-12
     218:	0006f180 	call	6f18 <alt_up_ps2_read_data_byte>
     21c:	1004c03a 	cmpne	r2,r2,zero
     220:	1000521e 	bne	r2,zero,36c <PS2_ISR+0x178>
	{
		if(cnt >= 1) cnt++;
     224:	00800074 	movhi	r2,1
     228:	10833c04 	addi	r2,r2,3312
     22c:	10800003 	ldbu	r2,0(r2)
     230:	10803fcc 	andi	r2,r2,255
     234:	1005003a 	cmpeq	r2,r2,zero
     238:	1000081e 	bne	r2,zero,25c <PS2_ISR+0x68>
     23c:	00800074 	movhi	r2,1
     240:	10833c04 	addi	r2,r2,3312
     244:	10800003 	ldbu	r2,0(r2)
     248:	10800044 	addi	r2,r2,1
     24c:	1007883a 	mov	r3,r2
     250:	00800074 	movhi	r2,1
     254:	10833c04 	addi	r2,r2,3312
     258:	10c00005 	stb	r3,0(r2)
		
		/* allows save the last three bytes of data */
		byte1 = byte2;
     25c:	00800074 	movhi	r2,1
     260:	10833b04 	addi	r2,r2,3308
     264:	10c00003 	ldbu	r3,0(r2)
     268:	00800074 	movhi	r2,1
     26c:	10833b84 	addi	r2,r2,3310
     270:	10c00005 	stb	r3,0(r2)
		byte2 = byte3;
     274:	00800074 	movhi	r2,1
     278:	10833b44 	addi	r2,r2,3309
     27c:	10c00003 	ldbu	r3,0(r2)
     280:	00800074 	movhi	r2,1
     284:	10833b04 	addi	r2,r2,3308
     288:	10c00005 	stb	r3,0(r2)
		byte3 = PS2_data;
     28c:	e0fffd03 	ldbu	r3,-12(fp)
     290:	00800074 	movhi	r2,1
     294:	10833b44 	addi	r2,r2,3309
     298:	10c00005 	stb	r3,0(r2)
		if(cnt == 4){
     29c:	00800074 	movhi	r2,1
     2a0:	10833c04 	addi	r2,r2,3312
     2a4:	10800003 	ldbu	r2,0(r2)
     2a8:	10803fcc 	andi	r2,r2,255
     2ac:	10800118 	cmpnei	r2,r2,4
     2b0:	10001a1e 	bne	r2,zero,31c <PS2_ISR+0x128>
			cnt = 1;
     2b4:	00c00074 	movhi	r3,1
     2b8:	18c33c04 	addi	r3,r3,3312
     2bc:	00800044 	movi	r2,1
     2c0:	18800005 	stb	r2,0(r3)
			valid_byte1 = byte1;
     2c4:	00800074 	movhi	r2,1
     2c8:	10833b84 	addi	r2,r2,3310
     2cc:	10c00003 	ldbu	r3,0(r2)
     2d0:	00800074 	movhi	r2,1
     2d4:	10834104 	addi	r2,r2,3332
     2d8:	10c00005 	stb	r3,0(r2)
			valid_byte2 = byte2;
     2dc:	00800074 	movhi	r2,1
     2e0:	10833b04 	addi	r2,r2,3308
     2e4:	10c00003 	ldbu	r3,0(r2)
     2e8:	00800074 	movhi	r2,1
     2ec:	10833d04 	addi	r2,r2,3316
     2f0:	10c00005 	stb	r3,0(r2)
			valid_byte3 = byte3;
     2f4:	00800074 	movhi	r2,1
     2f8:	10833b44 	addi	r2,r2,3309
     2fc:	10c00003 	ldbu	r3,0(r2)
     300:	00800074 	movhi	r2,1
     304:	10833bc4 	addi	r2,r2,3311
     308:	10c00005 	stb	r3,0(r2)
			flag_mouse = 1;
     30c:	00c00074 	movhi	r3,1
     310:	18c33cc4 	addi	r3,r3,3315
     314:	00800044 	movi	r2,1
     318:	18800005 	stb	r2,0(r3)
		}
		if ( (byte2 == (unsigned char) 0xAA) && (byte3 == (unsigned char) 0x00) ){
     31c:	00800074 	movhi	r2,1
     320:	10833b04 	addi	r2,r2,3308
     324:	10800003 	ldbu	r2,0(r2)
     328:	10803fcc 	andi	r2,r2,255
     32c:	10802a98 	cmpnei	r2,r2,170
     330:	10000e1e 	bne	r2,zero,36c <PS2_ISR+0x178>
     334:	00800074 	movhi	r2,1
     338:	10833b44 	addi	r2,r2,3309
     33c:	10800003 	ldbu	r2,0(r2)
     340:	10803fcc 	andi	r2,r2,255
     344:	1004c03a 	cmpne	r2,r2,zero
     348:	1000081e 	bne	r2,zero,36c <PS2_ISR+0x178>
			// mouse inserted; initialize sending of data
			(void) alt_up_ps2_write_data_byte_with_ack (up_dev->PS2_dev, (unsigned char) 0xF4);
     34c:	e0bffe17 	ldw	r2,-8(fp)
     350:	11000317 	ldw	r4,12(r2)
     354:	01403d04 	movi	r5,244
     358:	0006dfc0 	call	6dfc <alt_up_ps2_write_data_byte_with_ack>
			cnt = 1; // enable cnt
     35c:	00c00074 	movhi	r3,1
     360:	18c33c04 	addi	r3,r3,3312
     364:	00800044 	movi	r2,1
     368:	18800005 	stb	r2,0(r3)
			
		}
	}
	return;
}
     36c:	e037883a 	mov	sp,fp
     370:	dfc00117 	ldw	ra,4(sp)
     374:	df000017 	ldw	fp,0(sp)
     378:	dec00204 	addi	sp,sp,8
     37c:	f800283a 	ret

00000380 <audio_ISR>:
 *                                                                          
 * This interrupt service routine records or plays back audio, depending on which type
 * interrupt (read or write) is pending in the audio device.
****************************************************************************************/
void audio_ISR(struct alt_up_dev *up_dev, unsigned int id)
{
     380:	defff904 	addi	sp,sp,-28
     384:	dfc00615 	stw	ra,24(sp)
     388:	df000515 	stw	fp,20(sp)
     38c:	df000504 	addi	fp,sp,20
     390:	e13ffe15 	stw	r4,-8(fp)
     394:	e17fff15 	stw	r5,-4(fp)
	int num_read; int num_written;

	unsigned int fifospace;
		
	if (alt_up_audio_read_interrupt_pending(up_dev->audio_dev))	// check for read interrupt
     398:	e0bffe17 	ldw	r2,-8(fp)
     39c:	11000517 	ldw	r4,20(r2)
     3a0:	00057500 	call	5750 <alt_up_audio_read_interrupt_pending>
     3a4:	1005003a 	cmpeq	r2,r2,zero
     3a8:	1000461e 	bne	r2,zero,4c4 <audio_ISR+0x144>
	{
		alt_up_parallel_port_write_data (up_dev->green_LEDs_dev, 0x1); // set LEDG[0] on
     3ac:	e0bffe17 	ldw	r2,-8(fp)
     3b0:	10800117 	ldw	r2,4(r2)
     3b4:	10800a17 	ldw	r2,40(r2)
     3b8:	1007883a 	mov	r3,r2
     3bc:	00800044 	movi	r2,1
     3c0:	18800035 	stwio	r2,0(r3)

		// store data until the buffer is full
		if (buf_index_record < BUF_SIZE)
     3c4:	00800074 	movhi	r2,1
     3c8:	10834004 	addi	r2,r2,3328
     3cc:	10c00017 	ldw	r3,0(r2)
     3d0:	00800234 	movhi	r2,8
     3d4:	10a847c4 	addi	r2,r2,-24289
     3d8:	10c03a16 	blt	r2,r3,4c4 <audio_ISR+0x144>
		{
			num_read = alt_up_audio_record_r (up_dev->audio_dev, &(r_buf[buf_index_record]), 
     3dc:	e0bffe17 	ldw	r2,-8(fp)
     3e0:	11000517 	ldw	r4,20(r2)
     3e4:	00800074 	movhi	r2,1
     3e8:	10834004 	addi	r2,r2,3328
     3ec:	10800017 	ldw	r2,0(r2)
     3f0:	1085883a 	add	r2,r2,r2
     3f4:	1085883a 	add	r2,r2,r2
     3f8:	1007883a 	mov	r3,r2
     3fc:	00800074 	movhi	r2,1
     400:	1083c104 	addi	r2,r2,3844
     404:	188b883a 	add	r5,r3,r2
     408:	00800074 	movhi	r2,1
     40c:	10834004 	addi	r2,r2,3328
     410:	10c00017 	ldw	r3,0(r2)
     414:	00800234 	movhi	r2,8
     418:	10a84804 	addi	r2,r2,-24288
     41c:	10cdc83a 	sub	r6,r2,r3
     420:	00058c00 	call	58c0 <alt_up_audio_record_r>
     424:	e0bffd15 	stw	r2,-12(fp)
				BUF_SIZE - buf_index_record);
			/* assume we can read same # words from the left and right */
			(void) alt_up_audio_record_l (up_dev->audio_dev, &(l_buf[buf_index_record]), 
     428:	e0bffe17 	ldw	r2,-8(fp)
     42c:	11000517 	ldw	r4,20(r2)
     430:	00800074 	movhi	r2,1
     434:	10834004 	addi	r2,r2,3328
     438:	10800017 	ldw	r2,0(r2)
     43c:	1085883a 	add	r2,r2,r2
     440:	1085883a 	add	r2,r2,r2
     444:	1007883a 	mov	r3,r2
     448:	00800834 	movhi	r2,32
     44c:	10a4e104 	addi	r2,r2,-27772
     450:	188b883a 	add	r5,r3,r2
     454:	e1bffd17 	ldw	r6,-12(fp)
     458:	00059300 	call	5930 <alt_up_audio_record_l>
				num_read);
			buf_index_record += num_read;
     45c:	00800074 	movhi	r2,1
     460:	10834004 	addi	r2,r2,3328
     464:	10c00017 	ldw	r3,0(r2)
     468:	e0bffd17 	ldw	r2,-12(fp)
     46c:	1887883a 	add	r3,r3,r2
     470:	00800074 	movhi	r2,1
     474:	10834004 	addi	r2,r2,3328
     478:	10c00015 	stw	r3,0(r2)

			if (buf_index_record == BUF_SIZE)
     47c:	00800074 	movhi	r2,1
     480:	10834004 	addi	r2,r2,3328
     484:	10c00017 	ldw	r3,0(r2)
     488:	00800234 	movhi	r2,8
     48c:	10a84804 	addi	r2,r2,-24288
     490:	18800c1e 	bne	r3,r2,4c4 <audio_ISR+0x144>
			{
				// done recording
				alt_up_parallel_port_write_data (up_dev->green_LEDs_dev, 0); // turn off LEDG
     494:	e0bffe17 	ldw	r2,-8(fp)
     498:	10800117 	ldw	r2,4(r2)
     49c:	10800a17 	ldw	r2,40(r2)
     4a0:	10000035 	stwio	zero,0(r2)
				alt_up_audio_disable_read_interrupt(up_dev->audio_dev);
     4a4:	e0bffe17 	ldw	r2,-8(fp)
     4a8:	11000517 	ldw	r4,20(r2)
     4ac:	00056640 	call	5664 <alt_up_audio_disable_read_interrupt>
				take_mean();
     4b0:	00007140 	call	714 <take_mean>
				new_record_flag = 1;
     4b4:	00c00074 	movhi	r3,1
     4b8:	18fb6004 	addi	r3,r3,-4736
     4bc:	00800044 	movi	r2,1
     4c0:	1880000d 	sth	r2,0(r3)
			}
		}
	}
	if (alt_up_audio_write_interrupt_pending(up_dev->audio_dev))	// check for write interrupt
     4c4:	e0bffe17 	ldw	r2,-8(fp)
     4c8:	11000517 	ldw	r4,20(r2)
     4cc:	000578c0 	call	578c <alt_up_audio_write_interrupt_pending>
     4d0:	1005003a 	cmpeq	r2,r2,zero
     4d4:	10008a1e 	bne	r2,zero,700 <audio_ISR+0x380>
	{
		alt_up_parallel_port_write_data (up_dev->green_LEDs_dev, 0x2); // set LEDG[1] on
     4d8:	e0bffe17 	ldw	r2,-8(fp)
     4dc:	10800117 	ldw	r2,4(r2)
     4e0:	10800a17 	ldw	r2,40(r2)
     4e4:	1007883a 	mov	r3,r2
     4e8:	00800084 	movi	r2,2
     4ec:	18800035 	stwio	r2,0(r3)

		
		// output data until the buffer is empty 
		if (buf_index_play < BUF_SIZE)
     4f0:	00800074 	movhi	r2,1
     4f4:	10833f04 	addi	r2,r2,3324
     4f8:	10c00017 	ldw	r3,0(r2)
     4fc:	00800234 	movhi	r2,8
     500:	10a847c4 	addi	r2,r2,-24289
     504:	10c07e16 	blt	r2,r3,700 <audio_ISR+0x380>
		{
			flag_is_playing = 1;
     508:	00c00074 	movhi	r3,1
     50c:	18c33a84 	addi	r3,r3,3306
     510:	00800044 	movi	r2,1
     514:	1880000d 	sth	r2,0(r3)
			if(!flag_denoise){
     518:	00800074 	movhi	r2,1
     51c:	10833c44 	addi	r2,r2,3313
     520:	10800003 	ldbu	r2,0(r2)
     524:	10803fcc 	andi	r2,r2,255
     528:	1004c03a 	cmpne	r2,r2,zero
     52c:	1000291e 	bne	r2,zero,5d4 <audio_ISR+0x254>
				num_written = alt_up_audio_play_r (up_dev->audio_dev, &(r_buf[buf_index_play]), 
     530:	e0bffe17 	ldw	r2,-8(fp)
     534:	11000517 	ldw	r4,20(r2)
     538:	00800074 	movhi	r2,1
     53c:	10833f04 	addi	r2,r2,3324
     540:	10800017 	ldw	r2,0(r2)
     544:	1085883a 	add	r2,r2,r2
     548:	1085883a 	add	r2,r2,r2
     54c:	1007883a 	mov	r3,r2
     550:	00800074 	movhi	r2,1
     554:	1083c104 	addi	r2,r2,3844
     558:	188b883a 	add	r5,r3,r2
     55c:	00800074 	movhi	r2,1
     560:	10833f04 	addi	r2,r2,3324
     564:	10c00017 	ldw	r3,0(r2)
     568:	00800234 	movhi	r2,8
     56c:	10a84804 	addi	r2,r2,-24288
     570:	10cdc83a 	sub	r6,r2,r3
     574:	0005a140 	call	5a14 <alt_up_audio_play_r>
     578:	e0bffc15 	stw	r2,-16(fp)
					BUF_SIZE - buf_index_play);
				/* assume that we can write the same # words to the left and right */
				(void) alt_up_audio_play_l (up_dev->audio_dev, &(l_buf[buf_index_play]), 
     57c:	e0bffe17 	ldw	r2,-8(fp)
     580:	11000517 	ldw	r4,20(r2)
     584:	00800074 	movhi	r2,1
     588:	10833f04 	addi	r2,r2,3324
     58c:	10800017 	ldw	r2,0(r2)
     590:	1085883a 	add	r2,r2,r2
     594:	1085883a 	add	r2,r2,r2
     598:	1007883a 	mov	r3,r2
     59c:	00800834 	movhi	r2,32
     5a0:	10a4e104 	addi	r2,r2,-27772
     5a4:	188b883a 	add	r5,r3,r2
     5a8:	e1bffc17 	ldw	r6,-16(fp)
     5ac:	0005a840 	call	5a84 <alt_up_audio_play_l>
					num_written);
				buf_index_play += num_written;
     5b0:	00800074 	movhi	r2,1
     5b4:	10833f04 	addi	r2,r2,3324
     5b8:	10c00017 	ldw	r3,0(r2)
     5bc:	e0bffc17 	ldw	r2,-16(fp)
     5c0:	1887883a 	add	r3,r3,r2
     5c4:	00800074 	movhi	r2,1
     5c8:	10833f04 	addi	r2,r2,3324
     5cc:	10c00015 	stw	r3,0(r2)
     5d0:	00002e06 	br	68c <audio_ISR+0x30c>
			}
			else if(flag_denoise){
     5d4:	00800074 	movhi	r2,1
     5d8:	10833c44 	addi	r2,r2,3313
     5dc:	10800003 	ldbu	r2,0(r2)
     5e0:	10803fcc 	andi	r2,r2,255
     5e4:	1005003a 	cmpeq	r2,r2,zero
     5e8:	1000281e 	bne	r2,zero,68c <audio_ISR+0x30c>
				num_written = alt_up_audio_play_r (up_dev->audio_dev, &(r_buf_Denoise[buf_index_play]), 
     5ec:	e0bffe17 	ldw	r2,-8(fp)
     5f0:	11000517 	ldw	r4,20(r2)
     5f4:	00800074 	movhi	r2,1
     5f8:	10833f04 	addi	r2,r2,3324
     5fc:	10800017 	ldw	r2,0(r2)
     600:	1085883a 	add	r2,r2,r2
     604:	1085883a 	add	r2,r2,r2
     608:	1007883a 	mov	r3,r2
     60c:	00800fb4 	movhi	r2,62
     610:	10860904 	addi	r2,r2,6180
     614:	188b883a 	add	r5,r3,r2
     618:	00800074 	movhi	r2,1
     61c:	10833f04 	addi	r2,r2,3324
     620:	10c00017 	ldw	r3,0(r2)
     624:	00800234 	movhi	r2,8
     628:	10a84804 	addi	r2,r2,-24288
     62c:	10cdc83a 	sub	r6,r2,r3
     630:	0005a140 	call	5a14 <alt_up_audio_play_r>
     634:	e0bffc15 	stw	r2,-16(fp)
					BUF_SIZE - buf_index_play);
				/* assume that we can write the same # words to the left and right */
				(void) alt_up_audio_play_l (up_dev->audio_dev, &(l_buf_Denoise[buf_index_play]), 
     638:	e0bffe17 	ldw	r2,-8(fp)
     63c:	11000517 	ldw	r4,20(r2)
     640:	00800074 	movhi	r2,1
     644:	10833f04 	addi	r2,r2,3324
     648:	10800017 	ldw	r2,0(r2)
     64c:	1085883a 	add	r2,r2,r2
     650:	1085883a 	add	r2,r2,r2
     654:	1007883a 	mov	r3,r2
     658:	00801774 	movhi	r2,93
     65c:	10a72904 	addi	r2,r2,-25436
     660:	188b883a 	add	r5,r3,r2
     664:	e1bffc17 	ldw	r6,-16(fp)
     668:	0005a840 	call	5a84 <alt_up_audio_play_l>
					num_written);
				buf_index_play += num_written;
     66c:	00800074 	movhi	r2,1
     670:	10833f04 	addi	r2,r2,3324
     674:	10c00017 	ldw	r3,0(r2)
     678:	e0bffc17 	ldw	r2,-16(fp)
     67c:	1887883a 	add	r3,r3,r2
     680:	00800074 	movhi	r2,1
     684:	10833f04 	addi	r2,r2,3324
     688:	10c00015 	stw	r3,0(r2)
			}
			if(buf_index_play>=eq){
     68c:	00800074 	movhi	r2,1
     690:	10833f04 	addi	r2,r2,3324
     694:	10c00017 	ldw	r3,0(r2)
     698:	d0a7d917 	ldw	r2,-24732(gp)
     69c:	18800716 	blt	r3,r2,6bc <audio_ISR+0x33c>
				flag_play = 1;
     6a0:	00c00074 	movhi	r3,1
     6a4:	18c33a04 	addi	r3,r3,3304
     6a8:	00800044 	movi	r2,1
     6ac:	1880000d 	sth	r2,0(r3)
				eq += BUF_SIZE / N;
     6b0:	d0a7d917 	ldw	r2,-24732(gp)
     6b4:	10986a04 	addi	r2,r2,25000
     6b8:	d0a7d915 	stw	r2,-24732(gp)
			}
			if (buf_index_play == BUF_SIZE)
     6bc:	00800074 	movhi	r2,1
     6c0:	10833f04 	addi	r2,r2,3324
     6c4:	10c00017 	ldw	r3,0(r2)
     6c8:	00800234 	movhi	r2,8
     6cc:	10a84804 	addi	r2,r2,-24288
     6d0:	18800b1e 	bne	r3,r2,700 <audio_ISR+0x380>
			{
				// done playback
				eq = 0;
     6d4:	d027d915 	stw	zero,-24732(gp)
				flag_is_playing = 0;
     6d8:	00800074 	movhi	r2,1
     6dc:	10833a84 	addi	r2,r2,3306
     6e0:	1000000d 	sth	zero,0(r2)
				alt_up_parallel_port_write_data (up_dev->green_LEDs_dev, 0); // turn off LEDG
     6e4:	e0bffe17 	ldw	r2,-8(fp)
     6e8:	10800117 	ldw	r2,4(r2)
     6ec:	10800a17 	ldw	r2,40(r2)
     6f0:	10000035 	stwio	zero,0(r2)
				alt_up_audio_disable_write_interrupt(up_dev->audio_dev);
     6f4:	e0bffe17 	ldw	r2,-8(fp)
     6f8:	11000517 	ldw	r4,20(r2)
     6fc:	00057000 	call	5700 <alt_up_audio_disable_write_interrupt>
			}
		}
	}
	return;
}
     700:	e037883a 	mov	sp,fp
     704:	dfc00117 	ldw	ra,4(sp)
     708:	df000017 	ldw	fp,0(sp)
     70c:	dec00204 	addi	sp,sp,8
     710:	f800283a 	ret

00000714 <take_mean>:



void take_mean() {
     714:	defff304 	addi	sp,sp,-52
     718:	dfc00c15 	stw	ra,48(sp)
     71c:	df000b15 	stw	fp,44(sp)
     720:	dc000a15 	stw	r16,40(sp)
     724:	df000a04 	addi	fp,sp,40
	int i, j;
	int num = BUF_SIZE / N;
     728:	00986a04 	movi	r2,25000
     72c:	e0bffd15 	stw	r2,-12(fp)
	alt_64 sum = 0;
     730:	e03ffb15 	stw	zero,-20(fp)
     734:	e03ffc15 	stw	zero,-16(fp)
	*config_reg = (int)(N << 1); // Num set
     738:	00800074 	movhi	r2,1
     73c:	10bb6204 	addi	r2,r2,-4728
     740:	10c00017 	ldw	r3,0(r2)
     744:	00800a04 	movi	r2,40
     748:	18800015 	stw	r2,0(r3)
	*config_reg |= (int)(num << 12); //Size set
     74c:	00800074 	movhi	r2,1
     750:	10bb6204 	addi	r2,r2,-4728
     754:	11000017 	ldw	r4,0(r2)
     758:	00800074 	movhi	r2,1
     75c:	10bb6204 	addi	r2,r2,-4728
     760:	10800017 	ldw	r2,0(r2)
     764:	10c00017 	ldw	r3,0(r2)
     768:	e0bffd17 	ldw	r2,-12(fp)
     76c:	1004933a 	slli	r2,r2,12
     770:	1884b03a 	or	r2,r3,r2
     774:	20800015 	stw	r2,0(r4)
	*right_addr = r_buf;
     778:	00800074 	movhi	r2,1
     77c:	10bb6304 	addi	r2,r2,-4724
     780:	10c00017 	ldw	r3,0(r2)
     784:	00800074 	movhi	r2,1
     788:	1083c104 	addi	r2,r2,3844
     78c:	18800015 	stw	r2,0(r3)
	*left_addr = l_buf;
     790:	00800074 	movhi	r2,1
     794:	10bb6404 	addi	r2,r2,-4720
     798:	10c00017 	ldw	r3,0(r2)
     79c:	00800834 	movhi	r2,32
     7a0:	10a4e104 	addi	r2,r2,-27772
     7a4:	18800015 	stw	r2,0(r3)
	*out_addr = 0x60000000;
     7a8:	00800074 	movhi	r2,1
     7ac:	10bb6504 	addi	r2,r2,-4716
     7b0:	10c00017 	ldw	r3,0(r2)
     7b4:	00980034 	movhi	r2,24576
     7b8:	18800015 	stw	r2,0(r3)
	*config_reg |= 0x01; // go = 1
     7bc:	00800074 	movhi	r2,1
     7c0:	10bb6204 	addi	r2,r2,-4728
     7c4:	10c00017 	ldw	r3,0(r2)
     7c8:	00800074 	movhi	r2,1
     7cc:	10bb6204 	addi	r2,r2,-4728
     7d0:	10800017 	ldw	r2,0(r2)
     7d4:	10800017 	ldw	r2,0(r2)
     7d8:	10800054 	ori	r2,r2,1
     7dc:	18800015 	stw	r2,0(r3)
	//while(!((*config_reg >> 31) & 0x01)); //Done = 1
	int k;
	for(k=0;k<100000;k++){
     7e0:	e03ffa15 	stw	zero,-24(fp)
     7e4:	00000506 	br	7fc <take_mean+0xe8>
		int a;
		a=2;
     7e8:	00800084 	movi	r2,2
     7ec:	e0bff615 	stw	r2,-40(fp)
	*left_addr = l_buf;
	*out_addr = 0x60000000;
	*config_reg |= 0x01; // go = 1
	//while(!((*config_reg >> 31) & 0x01)); //Done = 1
	int k;
	for(k=0;k<100000;k++){
     7f0:	e0bffa17 	ldw	r2,-24(fp)
     7f4:	10800044 	addi	r2,r2,1
     7f8:	e0bffa15 	stw	r2,-24(fp)
     7fc:	e0fffa17 	ldw	r3,-24(fp)
     800:	008000b4 	movhi	r2,2
     804:	10a1a7c4 	addi	r2,r2,-31073
     808:	10fff70e 	bge	r2,r3,7e8 <take_mean+0xd4>
		int a;
		a=2;
	}
	for (j = 0; j < N; j++) {
     80c:	e03ffe15 	stw	zero,-8(fp)
     810:	00003306 	br	8e0 <take_mean+0x1cc>
		sum = 0;
     814:	e03ffb15 	stw	zero,-20(fp)
     818:	e03ffc15 	stw	zero,-16(fp)
		sum = (alt_64)(*out_addr) + (alt_64)(*(out_addr + 4)) << 32;
     81c:	00800074 	movhi	r2,1
     820:	10bb6504 	addi	r2,r2,-4716
     824:	10800017 	ldw	r2,0(r2)
     828:	10800017 	ldw	r2,0(r2)
     82c:	1007d7fa 	srai	r3,r2,31
     830:	100d883a 	mov	r6,r2
     834:	180f883a 	mov	r7,r3
     838:	00800074 	movhi	r2,1
     83c:	10bb6504 	addi	r2,r2,-4716
     840:	10800017 	ldw	r2,0(r2)
     844:	10800404 	addi	r2,r2,16
     848:	10800017 	ldw	r2,0(r2)
     84c:	1007d7fa 	srai	r3,r2,31
     850:	1009883a 	mov	r4,r2
     854:	180b883a 	mov	r5,r3
     858:	3105883a 	add	r2,r6,r4
     85c:	1191803a 	cmpltu	r8,r2,r6
     860:	3947883a 	add	r3,r7,r5
     864:	40c9883a 	add	r4,r8,r3
     868:	2007883a 	mov	r3,r4
     86c:	1009883a 	mov	r4,r2
     870:	180b883a 	mov	r5,r3
     874:	2004983a 	sll	r2,r4,zero
     878:	e0bffc15 	stw	r2,-16(fp)
     87c:	e03ffb15 	stw	zero,-20(fp)
		means[j] = (int) (sum / num);
     880:	e43ffe17 	ldw	r16,-8(fp)
     884:	e0bffd17 	ldw	r2,-12(fp)
     888:	1009d7fa 	srai	r4,r2,31
     88c:	e0bffd17 	ldw	r2,-12(fp)
     890:	2007883a 	mov	r3,r4
     894:	e13ffb17 	ldw	r4,-20(fp)
     898:	e17ffc17 	ldw	r5,-16(fp)
     89c:	100d883a 	mov	r6,r2
     8a0:	180f883a 	mov	r7,r3
     8a4:	00023e40 	call	23e4 <__divdi3>
     8a8:	1009883a 	mov	r4,r2
     8ac:	180b883a 	mov	r5,r3
     8b0:	2005883a 	mov	r2,r4
     8b4:	2807883a 	mov	r3,r5
     8b8:	1009883a 	mov	r4,r2
     8bc:	00c00074 	movhi	r3,1
     8c0:	18c34f04 	addi	r3,r3,3388
     8c4:	8405883a 	add	r2,r16,r16
     8c8:	1085883a 	add	r2,r2,r2
     8cc:	10c5883a 	add	r2,r2,r3
     8d0:	11000015 	stw	r4,0(r2)
	int k;
	for(k=0;k<100000;k++){
		int a;
		a=2;
	}
	for (j = 0; j < N; j++) {
     8d4:	e0bffe17 	ldw	r2,-8(fp)
     8d8:	10800044 	addi	r2,r2,1
     8dc:	e0bffe15 	stw	r2,-8(fp)
     8e0:	e0bffe17 	ldw	r2,-8(fp)
     8e4:	10800510 	cmplti	r2,r2,20
     8e8:	103fca1e 	bne	r2,zero,814 <take_mean+0x100>
		sum = 0;
		sum = (alt_64)(*out_addr) + (alt_64)(*(out_addr + 4)) << 32;
		means[j] = (int) (sum / num);
	}
	int max = 0;
     8ec:	e03ff915 	stw	zero,-28(fp)
	int min = means[0];
     8f0:	00800074 	movhi	r2,1
     8f4:	10834f04 	addi	r2,r2,3388
     8f8:	10800017 	ldw	r2,0(r2)
     8fc:	e0bff815 	stw	r2,-32(fp)
	for (i = 0; i < N; i++) {
     900:	e03fff15 	stw	zero,-4(fp)
     904:	00002506 	br	99c <take_mean+0x288>
		if (max < means[i]) {
     908:	e0bfff17 	ldw	r2,-4(fp)
     90c:	00c00074 	movhi	r3,1
     910:	18c34f04 	addi	r3,r3,3388
     914:	1085883a 	add	r2,r2,r2
     918:	1085883a 	add	r2,r2,r2
     91c:	10c5883a 	add	r2,r2,r3
     920:	10c00017 	ldw	r3,0(r2)
     924:	e0bff917 	ldw	r2,-28(fp)
     928:	10c0080e 	bge	r2,r3,94c <take_mean+0x238>
			max = means[i];
     92c:	e0bfff17 	ldw	r2,-4(fp)
     930:	00c00074 	movhi	r3,1
     934:	18c34f04 	addi	r3,r3,3388
     938:	1085883a 	add	r2,r2,r2
     93c:	1085883a 	add	r2,r2,r2
     940:	10c5883a 	add	r2,r2,r3
     944:	10800017 	ldw	r2,0(r2)
     948:	e0bff915 	stw	r2,-28(fp)
		}
		if (min>means[i]){
     94c:	e0bfff17 	ldw	r2,-4(fp)
     950:	00c00074 	movhi	r3,1
     954:	18c34f04 	addi	r3,r3,3388
     958:	1085883a 	add	r2,r2,r2
     95c:	1085883a 	add	r2,r2,r2
     960:	10c5883a 	add	r2,r2,r3
     964:	10c00017 	ldw	r3,0(r2)
     968:	e0bff817 	ldw	r2,-32(fp)
     96c:	1880080e 	bge	r3,r2,990 <take_mean+0x27c>
			min = means[i];
     970:	e0bfff17 	ldw	r2,-4(fp)
     974:	00c00074 	movhi	r3,1
     978:	18c34f04 	addi	r3,r3,3388
     97c:	1085883a 	add	r2,r2,r2
     980:	1085883a 	add	r2,r2,r2
     984:	10c5883a 	add	r2,r2,r3
     988:	10800017 	ldw	r2,0(r2)
     98c:	e0bff815 	stw	r2,-32(fp)
		sum = (alt_64)(*out_addr) + (alt_64)(*(out_addr + 4)) << 32;
		means[j] = (int) (sum / num);
	}
	int max = 0;
	int min = means[0];
	for (i = 0; i < N; i++) {
     990:	e0bfff17 	ldw	r2,-4(fp)
     994:	10800044 	addi	r2,r2,1
     998:	e0bfff15 	stw	r2,-4(fp)
     99c:	e0bfff17 	ldw	r2,-4(fp)
     9a0:	10800510 	cmplti	r2,r2,20
     9a4:	103fd81e 	bne	r2,zero,908 <take_mean+0x1f4>
		}
		if (min>means[i]){
			min = means[i];
		}
	}
	int mm=max-min;
     9a8:	e0bff917 	ldw	r2,-28(fp)
     9ac:	e0fff817 	ldw	r3,-32(fp)
     9b0:	10c5c83a 	sub	r2,r2,r3
     9b4:	e0bff715 	stw	r2,-36(fp)
	for (i = 0; i < N; i++) {
     9b8:	e03fff15 	stw	zero,-4(fp)
     9bc:	00002d06 	br	a74 <take_mean+0x360>
		heights[i] = (int)((alt_64) (means[i] - min) * MAX_H / (alt_64) (mm));
     9c0:	e43fff17 	ldw	r16,-4(fp)
     9c4:	e0bfff17 	ldw	r2,-4(fp)
     9c8:	00c00074 	movhi	r3,1
     9cc:	18c34f04 	addi	r3,r3,3388
     9d0:	1085883a 	add	r2,r2,r2
     9d4:	1085883a 	add	r2,r2,r2
     9d8:	10c5883a 	add	r2,r2,r3
     9dc:	10c00017 	ldw	r3,0(r2)
     9e0:	e0bff817 	ldw	r2,-32(fp)
     9e4:	1889c83a 	sub	r4,r3,r2
     9e8:	200bd7fa 	srai	r5,r4,31
     9ec:	2005883a 	mov	r2,r4
     9f0:	2807883a 	mov	r3,r5
     9f4:	1009883a 	mov	r4,r2
     9f8:	180b883a 	mov	r5,r3
     9fc:	01801904 	movi	r6,100
     a00:	000f883a 	mov	r7,zero
     a04:	00022a80 	call	22a8 <__muldi3>
     a08:	1009883a 	mov	r4,r2
     a0c:	180b883a 	mov	r5,r3
     a10:	200d883a 	mov	r6,r4
     a14:	280f883a 	mov	r7,r5
     a18:	e0bff717 	ldw	r2,-36(fp)
     a1c:	1009d7fa 	srai	r4,r2,31
     a20:	e0bff717 	ldw	r2,-36(fp)
     a24:	2007883a 	mov	r3,r4
     a28:	3009883a 	mov	r4,r6
     a2c:	380b883a 	mov	r5,r7
     a30:	100d883a 	mov	r6,r2
     a34:	180f883a 	mov	r7,r3
     a38:	00023e40 	call	23e4 <__divdi3>
     a3c:	1009883a 	mov	r4,r2
     a40:	180b883a 	mov	r5,r3
     a44:	2005883a 	mov	r2,r4
     a48:	2807883a 	mov	r3,r5
     a4c:	1009883a 	mov	r4,r2
     a50:	00c00074 	movhi	r3,1
     a54:	18c36304 	addi	r3,r3,3468
     a58:	8405883a 	add	r2,r16,r16
     a5c:	1085883a 	add	r2,r2,r2
     a60:	10c5883a 	add	r2,r2,r3
     a64:	11000015 	stw	r4,0(r2)
		if (min>means[i]){
			min = means[i];
		}
	}
	int mm=max-min;
	for (i = 0; i < N; i++) {
     a68:	e0bfff17 	ldw	r2,-4(fp)
     a6c:	10800044 	addi	r2,r2,1
     a70:	e0bfff15 	stw	r2,-4(fp)
     a74:	e0bfff17 	ldw	r2,-4(fp)
     a78:	10800510 	cmplti	r2,r2,20
     a7c:	103fd01e 	bne	r2,zero,9c0 <take_mean+0x2ac>
		heights[i] = (int)((alt_64) (means[i] - min) * MAX_H / (alt_64) (mm));
	}
}
     a80:	e037883a 	mov	sp,fp
     a84:	dfc00217 	ldw	ra,8(sp)
     a88:	df000117 	ldw	fp,4(sp)
     a8c:	dc000017 	ldw	r16,0(sp)
     a90:	dec00304 	addi	sp,sp,12
     a94:	f800283a 	ret

00000a98 <filter>:
-0.0019989013671875                                             
};

extern float mem[64];

unsigned int filter(unsigned int in){
     a98:	defff604 	addi	sp,sp,-40
     a9c:	dfc00915 	stw	ra,36(sp)
     aa0:	df000815 	stw	fp,32(sp)
     aa4:	dc400715 	stw	r17,28(sp)
     aa8:	dc000615 	stw	r16,24(sp)
     aac:	df000604 	addi	fp,sp,24
     ab0:	e13fff15 	stw	r4,-4(fp)
    in = in >> 8;
     ab4:	e0bfff17 	ldw	r2,-4(fp)
     ab8:	1004d23a 	srli	r2,r2,8
     abc:	e0bfff15 	stw	r2,-4(fp)
    float float_in = (float) in / 8388608;
     ac0:	e13fff17 	ldw	r4,-4(fp)
     ac4:	0002ab80 	call	2ab8 <__floatunsisf>
     ac8:	1007883a 	mov	r3,r2
     acc:	0092c034 	movhi	r2,19200
     ad0:	1885fff2 	custom	255,r2,r3,r2
     ad4:	e0bffe15 	stw	r2,-8(fp)

    int i;
    for (i=63;i>0;i--){
     ad8:	00800fc4 	movi	r2,63
     adc:	e0bffd15 	stw	r2,-12(fp)
     ae0:	00001206 	br	b2c <filter+0x94>
        mem[i]=mem[i-1];
     ae4:	e17ffd17 	ldw	r5,-12(fp)
     ae8:	e0bffd17 	ldw	r2,-12(fp)
     aec:	10bfffc4 	addi	r2,r2,-1
     af0:	00c00074 	movhi	r3,1
     af4:	18c37704 	addi	r3,r3,3548
     af8:	1085883a 	add	r2,r2,r2
     afc:	1085883a 	add	r2,r2,r2
     b00:	10c5883a 	add	r2,r2,r3
     b04:	11000017 	ldw	r4,0(r2)
     b08:	00c00074 	movhi	r3,1
     b0c:	18c37704 	addi	r3,r3,3548
     b10:	2945883a 	add	r2,r5,r5
     b14:	1085883a 	add	r2,r2,r2
     b18:	10c5883a 	add	r2,r2,r3
     b1c:	11000015 	stw	r4,0(r2)
unsigned int filter(unsigned int in){
    in = in >> 8;
    float float_in = (float) in / 8388608;

    int i;
    for (i=63;i>0;i--){
     b20:	e0bffd17 	ldw	r2,-12(fp)
     b24:	10bfffc4 	addi	r2,r2,-1
     b28:	e0bffd15 	stw	r2,-12(fp)
     b2c:	e0bffd17 	ldw	r2,-12(fp)
     b30:	10800048 	cmpgei	r2,r2,1
     b34:	103feb1e 	bne	r2,zero,ae4 <filter+0x4c>
        mem[i]=mem[i-1];
    }
    mem[0]=in;
     b38:	e13fff17 	ldw	r4,-4(fp)
     b3c:	0002ab80 	call	2ab8 <__floatunsisf>
     b40:	1007883a 	mov	r3,r2
     b44:	00800074 	movhi	r2,1
     b48:	10837704 	addi	r2,r2,3548
     b4c:	10c00015 	stw	r3,0(r2)
    double res=0;
     b50:	e03ffb15 	stw	zero,-20(fp)
     b54:	e03ffc15 	stw	zero,-16(fp)
    for(i=0;i<64;i++){
     b58:	e03ffd15 	stw	zero,-12(fp)
     b5c:	00002b06 	br	c0c <filter+0x174>
        res+=(double)mem[i]*(double)coef[i];
     b60:	e0bffd17 	ldw	r2,-12(fp)
     b64:	00c00074 	movhi	r3,1
     b68:	18c37704 	addi	r3,r3,3548
     b6c:	1085883a 	add	r2,r2,r2
     b70:	1085883a 	add	r2,r2,r2
     b74:	10c5883a 	add	r2,r2,r3
     b78:	10800017 	ldw	r2,0(r2)
     b7c:	1009883a 	mov	r4,r2
     b80:	0002a640 	call	2a64 <__extendsfdf2>
     b84:	1021883a 	mov	r16,r2
     b88:	1823883a 	mov	r17,r3
     b8c:	e0bffd17 	ldw	r2,-12(fp)
     b90:	00c00074 	movhi	r3,1
     b94:	18f1da04 	addi	r3,r3,-14488
     b98:	1085883a 	add	r2,r2,r2
     b9c:	1085883a 	add	r2,r2,r2
     ba0:	10c5883a 	add	r2,r2,r3
     ba4:	10800017 	ldw	r2,0(r2)
     ba8:	1009883a 	mov	r4,r2
     bac:	0002a640 	call	2a64 <__extendsfdf2>
     bb0:	100f883a 	mov	r7,r2
     bb4:	1811883a 	mov	r8,r3
     bb8:	8009883a 	mov	r4,r16
     bbc:	880b883a 	mov	r5,r17
     bc0:	380d883a 	mov	r6,r7
     bc4:	400f883a 	mov	r7,r8
     bc8:	000307c0 	call	307c <__muldf3>
     bcc:	1009883a 	mov	r4,r2
     bd0:	180b883a 	mov	r5,r3
     bd4:	2005883a 	mov	r2,r4
     bd8:	2807883a 	mov	r3,r5
     bdc:	e13ffb17 	ldw	r4,-20(fp)
     be0:	e17ffc17 	ldw	r5,-16(fp)
     be4:	100d883a 	mov	r6,r2
     be8:	180f883a 	mov	r7,r3
     bec:	00030080 	call	3008 <__adddf3>
     bf0:	1009883a 	mov	r4,r2
     bf4:	180b883a 	mov	r5,r3
     bf8:	e13ffb15 	stw	r4,-20(fp)
     bfc:	e17ffc15 	stw	r5,-16(fp)
    for (i=63;i>0;i--){
        mem[i]=mem[i-1];
    }
    mem[0]=in;
    double res=0;
    for(i=0;i<64;i++){
     c00:	e0bffd17 	ldw	r2,-12(fp)
     c04:	10800044 	addi	r2,r2,1
     c08:	e0bffd15 	stw	r2,-12(fp)
     c0c:	e0bffd17 	ldw	r2,-12(fp)
     c10:	10801010 	cmplti	r2,r2,64
     c14:	103fd21e 	bne	r2,zero,b60 <filter+0xc8>
        res+=(double)mem[i]*(double)coef[i];
        // res+=mem[i];
    }
    unsigned int result=(unsigned int)(res*1073741824);
     c18:	e13ffb17 	ldw	r4,-20(fp)
     c1c:	e17ffc17 	ldw	r5,-16(fp)
     c20:	000d883a 	mov	r6,zero
     c24:	01d07434 	movhi	r7,16848
     c28:	000307c0 	call	307c <__muldf3>
     c2c:	1009883a 	mov	r4,r2
     c30:	180b883a 	mov	r5,r3
     c34:	2005883a 	mov	r2,r4
     c38:	2807883a 	mov	r3,r5
     c3c:	1009883a 	mov	r4,r2
     c40:	180b883a 	mov	r5,r3
     c44:	00023400 	call	2340 <__fixunsdfsi>
     c48:	e0bffa15 	stw	r2,-24(fp)
    return result;
     c4c:	e0bffa17 	ldw	r2,-24(fp)
     c50:	e037883a 	mov	sp,fp
     c54:	dfc00317 	ldw	ra,12(sp)
     c58:	df000217 	ldw	fp,8(sp)
     c5c:	dc400117 	ldw	r17,4(sp)
     c60:	dc000017 	ldw	r16,0(sp)
     c64:	dec00404 	addi	sp,sp,16
     c68:	f800283a 	ret

00000c6c <interval_timer_ISR>:
 * Shifts a PATTERN being displayed on the LCD character display. The shift 
 * direction is determined by the external variable KEY_PRESSED.
 * 
******************************************************************************/
void interval_timer_ISR(struct alt_up_dev *up_dev, unsigned int id)
{
     c6c:	defffb04 	addi	sp,sp,-20
     c70:	dfc00415 	stw	ra,16(sp)
     c74:	df000315 	stw	fp,12(sp)
     c78:	df000304 	addi	fp,sp,12
     c7c:	e13ffe15 	stw	r4,-8(fp)
     c80:	e17fff15 	stw	r5,-4(fp)
	volatile int *interval_timer_ptr = (int *) 0x10002000;
     c84:	00840034 	movhi	r2,4096
     c88:	10880004 	addi	r2,r2,8192
     c8c:	e0bffd15 	stw	r2,-12(fp)

	*(interval_timer_ptr) = 0; 										// clear the interrupt
     c90:	e0bffd17 	ldw	r2,-12(fp)
     c94:	10000015 	stw	zero,0(r2)
	timeout = 1;															// set global variable
     c98:	00c00074 	movhi	r3,1
     c9c:	18c33e04 	addi	r3,r3,3320
     ca0:	00800044 	movi	r2,1
     ca4:	18800015 	stw	r2,0(r3)

	/* shift the LCD display to the left */
	alt_up_character_lcd_shift_display (up_dev->lcd_dev, -1);
     ca8:	e0bffe17 	ldw	r2,-8(fp)
     cac:	11000417 	ldw	r4,16(r2)
     cb0:	017fffc4 	movi	r5,-1
     cb4:	000616c0 	call	616c <alt_up_character_lcd_shift_display>

	return;
}
     cb8:	e037883a 	mov	sp,fp
     cbc:	dfc00117 	ldw	ra,4(sp)
     cc0:	df000017 	ldw	fp,0(sp)
     cc4:	dec00204 	addi	sp,sp,8
     cc8:	f800283a 	ret

00000ccc <main>:
********************************************************************************/
short int all_drawn=0;
int rect_th = 0;

int main(void)
{
     ccc:	deffa404 	addi	sp,sp,-368
     cd0:	dfc05b15 	stw	ra,364(sp)
     cd4:	df005a15 	stw	fp,360(sp)
     cd8:	df005a04 	addi	fp,sp,360
	signed short pre_x_axis_mouse, pre_y_axis_mouse;
	x_axis_mouse = 160;
     cdc:	00802804 	movi	r2,160
     ce0:	d0a7e48d 	sth	r2,-24686(gp)
	y_axis_mouse = 120;
     ce4:	00801e04 	movi	r2,120
     ce8:	d0a7e40d 	sth	r2,-24688(gp)
	alt_up_character_lcd_dev *lcd_dev;
	alt_up_audio_dev *audio_dev;
	alt_up_char_buffer_dev *char_buffer_dev;
	alt_up_pixel_buffer_dma_dev *pixel_buffer_dev;
	/* declare volatile pointer for interval timer, which does not have HAL functions */
	volatile int * interval_timer_ptr = (int *) 0x10002000;	// interal timer base address
     cec:	00840034 	movhi	r2,4096
     cf0:	10880004 	addi	r2,r2,8192
     cf4:	e0bfc815 	stw	r2,-224(fp)

	/* initialize some variables */
	valid_byte1 = 0; valid_byte2 = 0; valid_byte3 = 0; 			// used to hold PS/2 data
     cf8:	00800074 	movhi	r2,1
     cfc:	10834104 	addi	r2,r2,3332
     d00:	10000005 	stb	zero,0(r2)
     d04:	00800074 	movhi	r2,1
     d08:	10833d04 	addi	r2,r2,3316
     d0c:	10000005 	stb	zero,0(r2)
     d10:	00800074 	movhi	r2,1
     d14:	10833bc4 	addi	r2,r2,3311
     d18:	10000005 	stb	zero,0(r2)
	timeout = 0;										// synchronize with the timer
     d1c:	00800074 	movhi	r2,1
     d20:	10833e04 	addi	r2,r2,3320
     d24:	10000015 	stw	zero,0(r2)
	int record_box_x1, record_box_x2, record_box_y1, record_box_y2;
	int play_box_x1, play_box_x2, play_box_y1, play_box_y2;
	int Denoise_box_x1, Denoise_box_x2, Denoise_box_y1, Denoise_box_y2;

	/* set the interval timer period for scrolling the HEX displays */
	int counter = 0x960000;				// 1/(50 MHz) x (0x960000) ~= 200 msec
     d28:	008025b4 	movhi	r2,150
     d2c:	e0bfad15 	stw	r2,-332(fp)
	*(interval_timer_ptr + 0x2) = (counter & 0xFFFF);
     d30:	e0bfc817 	ldw	r2,-224(fp)
     d34:	10c00204 	addi	r3,r2,8
     d38:	e0bfad17 	ldw	r2,-332(fp)
     d3c:	10bfffcc 	andi	r2,r2,65535
     d40:	18800015 	stw	r2,0(r3)
	*(interval_timer_ptr + 0x3) = (counter >> 16) & 0xFFFF;
     d44:	e0bfc817 	ldw	r2,-224(fp)
     d48:	10c00304 	addi	r3,r2,12
     d4c:	e0bfad17 	ldw	r2,-332(fp)
     d50:	1005d43a 	srai	r2,r2,16
     d54:	10bfffcc 	andi	r2,r2,65535
     d58:	18800015 	stw	r2,0(r3)

	/* start interval timer, enable its interrupts */
	*(interval_timer_ptr + 1) = 0x7;	// STOP = 0, START = 1, CONT = 1, ITO = 1 
     d5c:	e0bfc817 	ldw	r2,-224(fp)
     d60:	10c00104 	addi	r3,r2,4
     d64:	008001c4 	movi	r2,7
     d68:	18800015 	stw	r2,0(r3)
	
	// open the pushbuttom KEY parallel port
	KEY_dev = alt_up_parallel_port_open_dev ("/dev/Pushbuttons");
     d6c:	01000074 	movhi	r4,1
     d70:	21321a04 	addi	r4,r4,-14232
     d74:	0006a300 	call	6a30 <alt_up_parallel_port_open_dev>
     d78:	e0bfd015 	stw	r2,-192(fp)
	if ( KEY_dev == NULL)
     d7c:	e0bfd017 	ldw	r2,-192(fp)
     d80:	1004c03a 	cmpne	r2,r2,zero
     d84:	1000061e 	bne	r2,zero,da0 <main+0xd4>
	{
		alt_printf ("Error: could not open pushbutton KEY device\n");
     d88:	01000074 	movhi	r4,1
     d8c:	21321f04 	addi	r4,r4,-14212
     d90:	00043300 	call	4330 <alt_printf>
		return -1;
     d94:	00bfffc4 	movi	r2,-1
     d98:	e0bfff15 	stw	r2,-4(fp)
     d9c:	0002bf06 	br	189c <main+0xbd0>
	}
	else
	{
		alt_printf ("Opened pushbutton KEY device\n");
     da0:	01000074 	movhi	r4,1
     da4:	21322b04 	addi	r4,r4,-14164
     da8:	00043300 	call	4330 <alt_printf>
		up_dev.KEY_dev = KEY_dev;	// store for use by ISRs
     dac:	00c00fb4 	movhi	r3,62
     db0:	18c60104 	addi	r3,r3,6148
     db4:	e0bfd017 	ldw	r2,-192(fp)
     db8:	18800015 	stw	r2,0(r3)
	}
	/* write to the pushbutton interrupt mask register, and set 3 mask bits to 1 
	 * (bit 0 is Nios II reset) */
	alt_up_parallel_port_set_interrupt_mask (KEY_dev, 0xE);
     dbc:	e0bfd017 	ldw	r2,-192(fp)
     dc0:	10800a17 	ldw	r2,40(r2)
     dc4:	10800204 	addi	r2,r2,8
     dc8:	1007883a 	mov	r3,r2
     dcc:	00800384 	movi	r2,14
     dd0:	18800035 	stwio	r2,0(r3)

	// open the green LEDs parallel port
	green_LEDs_dev = alt_up_parallel_port_open_dev ("/dev/Green_LEDs");
     dd4:	01000074 	movhi	r4,1
     dd8:	21323304 	addi	r4,r4,-14132
     ddc:	0006a300 	call	6a30 <alt_up_parallel_port_open_dev>
     de0:	e0bfcf15 	stw	r2,-196(fp)
	if ( green_LEDs_dev == NULL)
     de4:	e0bfcf17 	ldw	r2,-196(fp)
     de8:	1004c03a 	cmpne	r2,r2,zero
     dec:	1000061e 	bne	r2,zero,e08 <main+0x13c>
	{
		alt_printf ("Error: could not open green LEDs device\n");
     df0:	01000074 	movhi	r4,1
     df4:	21323704 	addi	r4,r4,-14116
     df8:	00043300 	call	4330 <alt_printf>
		return -1;
     dfc:	00bfffc4 	movi	r2,-1
     e00:	e0bfff15 	stw	r2,-4(fp)
     e04:	0002a506 	br	189c <main+0xbd0>
	}
	else
	{
		alt_printf ("Opened green LEDs device\n");
     e08:	01000074 	movhi	r4,1
     e0c:	21324204 	addi	r4,r4,-14072
     e10:	00043300 	call	4330 <alt_printf>
		up_dev.green_LEDs_dev = green_LEDs_dev;	// store for use by ISRs
     e14:	00c00fb4 	movhi	r3,62
     e18:	18c60104 	addi	r3,r3,6148
     e1c:	e0bfcf17 	ldw	r2,-196(fp)
     e20:	18800115 	stw	r2,4(r3)
	}

	// open the red LEDs parallel port
	red_LEDs_dev = alt_up_parallel_port_open_dev ("/dev/Red_LEDs");
     e24:	01000074 	movhi	r4,1
     e28:	21324904 	addi	r4,r4,-14044
     e2c:	0006a300 	call	6a30 <alt_up_parallel_port_open_dev>
     e30:	e0bfce15 	stw	r2,-200(fp)
	if ( red_LEDs_dev == NULL)
     e34:	e0bfce17 	ldw	r2,-200(fp)
     e38:	1004c03a 	cmpne	r2,r2,zero
     e3c:	1000061e 	bne	r2,zero,e58 <main+0x18c>
	{
		alt_printf ("Error: could not open red LEDs device\n");
     e40:	01000074 	movhi	r4,1
     e44:	21324d04 	addi	r4,r4,-14028
     e48:	00043300 	call	4330 <alt_printf>
		return -1;
     e4c:	00bfffc4 	movi	r2,-1
     e50:	e0bfff15 	stw	r2,-4(fp)
     e54:	00029106 	br	189c <main+0xbd0>
	}
	else
	{
		alt_printf ("Opened red LEDs device\n");
     e58:	01000074 	movhi	r4,1
     e5c:	21325704 	addi	r4,r4,-13988
     e60:	00043300 	call	4330 <alt_printf>
		up_dev.red_LEDs_dev = red_LEDs_dev;	// store for use by ISRs
     e64:	00c00fb4 	movhi	r3,62
     e68:	18c60104 	addi	r3,r3,6148
     e6c:	e0bfce17 	ldw	r2,-200(fp)
     e70:	18800215 	stw	r2,8(r3)
	}


	// open the PS2 port
	PS2_dev = alt_up_ps2_open_dev ("/dev/PS2_Port");
     e74:	01000074 	movhi	r4,1
     e78:	21325d04 	addi	r4,r4,-13964
     e7c:	00071300 	call	7130 <alt_up_ps2_open_dev>
     e80:	e0bfcd15 	stw	r2,-204(fp)
	if ( PS2_dev == NULL)
     e84:	e0bfcd17 	ldw	r2,-204(fp)
     e88:	1004c03a 	cmpne	r2,r2,zero
     e8c:	1000061e 	bne	r2,zero,ea8 <main+0x1dc>
	{
		alt_printf ("Error: could not open PS2 device\n");
     e90:	01000074 	movhi	r4,1
     e94:	21326104 	addi	r4,r4,-13948
     e98:	00043300 	call	4330 <alt_printf>
		return -1;
     e9c:	00bfffc4 	movi	r2,-1
     ea0:	e0bfff15 	stw	r2,-4(fp)
     ea4:	00027d06 	br	189c <main+0xbd0>
	}
	else
	{
		alt_printf ("Opened PS2 device\n");
     ea8:	01000074 	movhi	r4,1
     eac:	21326a04 	addi	r4,r4,-13912
     eb0:	00043300 	call	4330 <alt_printf>
		up_dev.PS2_dev = PS2_dev;	// store for use by ISRs
     eb4:	00c00fb4 	movhi	r3,62
     eb8:	18c60104 	addi	r3,r3,6148
     ebc:	e0bfcd17 	ldw	r2,-204(fp)
     ec0:	18800315 	stw	r2,12(r3)
	}
	(void) alt_up_ps2_write_data_byte (PS2_dev, 0xFF);		// reset
     ec4:	e13fcd17 	ldw	r4,-204(fp)
     ec8:	01403fc4 	movi	r5,255
     ecc:	0006d140 	call	6d14 <alt_up_ps2_write_data_byte>
	alt_up_ps2_enable_read_interrupt (PS2_dev); // enable interrupts from PS/2 port
     ed0:	e13fcd17 	ldw	r4,-204(fp)
     ed4:	0006c680 	call	6c68 <alt_up_ps2_enable_read_interrupt>

	// open the audio port
	audio_dev = alt_up_audio_open_dev ("/dev/Audio");
     ed8:	01000074 	movhi	r4,1
     edc:	21326f04 	addi	r4,r4,-13892
     ee0:	00055d80 	call	55d8 <alt_up_audio_open_dev>
     ee4:	e0bfcb15 	stw	r2,-212(fp)
	if ( audio_dev == NULL)
     ee8:	e0bfcb17 	ldw	r2,-212(fp)
     eec:	1004c03a 	cmpne	r2,r2,zero
     ef0:	1000061e 	bne	r2,zero,f0c <main+0x240>
	{
		alt_printf ("Error: could not open audio device\n");
     ef4:	01000074 	movhi	r4,1
     ef8:	21327204 	addi	r4,r4,-13880
     efc:	00043300 	call	4330 <alt_printf>
		return -1;
     f00:	00bfffc4 	movi	r2,-1
     f04:	e0bfff15 	stw	r2,-4(fp)
     f08:	00026406 	br	189c <main+0xbd0>
	}
	else
	{
		alt_printf ("Opened audio device\n");
     f0c:	01000074 	movhi	r4,1
     f10:	21327b04 	addi	r4,r4,-13844
     f14:	00043300 	call	4330 <alt_printf>
		up_dev.audio_dev = audio_dev;	// store for use by ISRs
     f18:	00c00fb4 	movhi	r3,62
     f1c:	18c60104 	addi	r3,r3,6148
     f20:	e0bfcb17 	ldw	r2,-212(fp)
     f24:	18800515 	stw	r2,20(r3)
	}

	// open the 16x2 character display port
	lcd_dev = alt_up_character_lcd_open_dev ("/dev/Char_LCD_16x2");
     f28:	01000074 	movhi	r4,1
     f2c:	21328104 	addi	r4,r4,-13820
     f30:	0005ec80 	call	5ec8 <alt_up_character_lcd_open_dev>
     f34:	e0bfcc15 	stw	r2,-208(fp)
	if ( lcd_dev == NULL)
     f38:	e0bfcc17 	ldw	r2,-208(fp)
     f3c:	1004c03a 	cmpne	r2,r2,zero
     f40:	1000061e 	bne	r2,zero,f5c <main+0x290>
	{
		alt_printf ("Error: could not open character LCD device\n");
     f44:	01000074 	movhi	r4,1
     f48:	21328604 	addi	r4,r4,-13800
     f4c:	00043300 	call	4330 <alt_printf>
		return -1;
     f50:	00bfffc4 	movi	r2,-1
     f54:	e0bfff15 	stw	r2,-4(fp)
     f58:	00025006 	br	189c <main+0xbd0>
	}
	else
	{
		alt_printf ("Opened character LCD device\n");
     f5c:	01000074 	movhi	r4,1
     f60:	21329104 	addi	r4,r4,-13756
     f64:	00043300 	call	4330 <alt_printf>
		up_dev.lcd_dev = lcd_dev;	// store for use by ISRs
     f68:	00c00fb4 	movhi	r3,62
     f6c:	18c60104 	addi	r3,r3,6148
     f70:	e0bfcc17 	ldw	r2,-208(fp)
     f74:	18800415 	stw	r2,16(r3)
	/* use the HAL facility for registering interrupt service routines. */
	/* Note: we are passsing a pointer to up_dev to each ISR (using the context argument) as 
	 * a way of giving the ISR a pointer to every open device. This is useful because some of the
	 * ISRs need to access more than just one device (e.g. the pushbutton ISR accesses both
	 * the pushbutton device and the audio device) */
	alt_irq_register (0, (void *) &up_dev, (void *) interval_timer_ISR);
     f78:	01800034 	movhi	r6,0
     f7c:	31831b04 	addi	r6,r6,3180
     f80:	0009883a 	mov	r4,zero
     f84:	01400fb4 	movhi	r5,62
     f88:	29460104 	addi	r5,r5,6148
     f8c:	00040180 	call	4018 <alt_irq_register>
	alt_irq_register (1, (void *) &up_dev, (void *) pushbutton_ISR);
     f90:	01800034 	movhi	r6,0
     f94:	31887c04 	addi	r6,r6,8688
     f98:	01000044 	movi	r4,1
     f9c:	01400fb4 	movhi	r5,62
     fa0:	29460104 	addi	r5,r5,6148
     fa4:	00040180 	call	4018 <alt_irq_register>
	alt_irq_register (6, (void *) &up_dev, (void *) audio_ISR);
     fa8:	01800034 	movhi	r6,0
     fac:	3180e004 	addi	r6,r6,896
     fb0:	01000184 	movi	r4,6
     fb4:	01400fb4 	movhi	r5,62
     fb8:	29460104 	addi	r5,r5,6148
     fbc:	00040180 	call	4018 <alt_irq_register>
	alt_irq_register (7, (void *) &up_dev, (void *) PS2_ISR);
     fc0:	01800034 	movhi	r6,0
     fc4:	31807d04 	addi	r6,r6,500
     fc8:	010001c4 	movi	r4,7
     fcc:	01400fb4 	movhi	r5,62
     fd0:	29460104 	addi	r5,r5,6148
     fd4:	00040180 	call	4018 <alt_irq_register>

	/* create a messages to be displayed on the VGA and LCD displays */
	char text_top_LCD[80] = "Welcome to the DE2 Media Computer...\0";
     fd8:	00c00074 	movhi	r3,1
     fdc:	18f2cb04 	addi	r3,r3,-13524
     fe0:	18800017 	ldw	r2,0(r3)
     fe4:	e0bfd415 	stw	r2,-176(fp)
     fe8:	18800117 	ldw	r2,4(r3)
     fec:	e0bfd515 	stw	r2,-172(fp)
     ff0:	18800217 	ldw	r2,8(r3)
     ff4:	e0bfd615 	stw	r2,-168(fp)
     ff8:	18800317 	ldw	r2,12(r3)
     ffc:	e0bfd715 	stw	r2,-164(fp)
    1000:	18800417 	ldw	r2,16(r3)
    1004:	e0bfd815 	stw	r2,-160(fp)
    1008:	18800517 	ldw	r2,20(r3)
    100c:	e0bfd915 	stw	r2,-156(fp)
    1010:	18800617 	ldw	r2,24(r3)
    1014:	e0bfda15 	stw	r2,-152(fp)
    1018:	18800717 	ldw	r2,28(r3)
    101c:	e0bfdb15 	stw	r2,-148(fp)
    1020:	18800817 	ldw	r2,32(r3)
    1024:	e0bfdc15 	stw	r2,-144(fp)
    1028:	1880090b 	ldhu	r2,36(r3)
    102c:	e0bfdd0d 	sth	r2,-140(fp)
    1030:	e13fdd84 	addi	r4,fp,-138
    1034:	01800a84 	movi	r6,42
    1038:	000b883a 	mov	r5,zero
    103c:	0003f800 	call	3f80 <memset>
	char text_top_VGA[20] = "Altera DE2\0";
    1040:	00c00074 	movhi	r3,1
    1044:	18f2df04 	addi	r3,r3,-13444
    1048:	18800017 	ldw	r2,0(r3)
    104c:	e0bfe815 	stw	r2,-96(fp)
    1050:	18800117 	ldw	r2,4(r3)
    1054:	e0bfe915 	stw	r2,-92(fp)
    1058:	18800217 	ldw	r2,8(r3)
    105c:	e0bfea15 	stw	r2,-88(fp)
    1060:	e03feb15 	stw	zero,-84(fp)
    1064:	e03fec15 	stw	zero,-80(fp)
	char text_bottom_VGA[20] = "Media Computer\0";
    1068:	00c00074 	movhi	r3,1
    106c:	18f2e404 	addi	r3,r3,-13424
    1070:	18800017 	ldw	r2,0(r3)
    1074:	e0bfed15 	stw	r2,-76(fp)
    1078:	18800117 	ldw	r2,4(r3)
    107c:	e0bfee15 	stw	r2,-72(fp)
    1080:	18800217 	ldw	r2,8(r3)
    1084:	e0bfef15 	stw	r2,-68(fp)
    1088:	18800317 	ldw	r2,12(r3)
    108c:	e0bff015 	stw	r2,-64(fp)
    1090:	e03ff115 	stw	zero,-60(fp)
	char text_ALTERA[10] = "SAEED\0";
    1094:	00c00074 	movhi	r3,1
    1098:	18f2e904 	addi	r3,r3,-13404
    109c:	18800017 	ldw	r2,0(r3)
    10a0:	e0bff215 	stw	r2,-56(fp)
    10a4:	1880010b 	ldhu	r2,4(r3)
    10a8:	e0bff30d 	sth	r2,-52(fp)
    10ac:	18800183 	ldbu	r2,6(r3)
    10b0:	e0bff385 	stb	r2,-50(fp)
    10b4:	e03ff3c5 	stb	zero,-49(fp)
    10b8:	e03ff405 	stb	zero,-48(fp)
    10bc:	e03ff445 	stb	zero,-47(fp)
	char text_erase[10] = "      \0";
    10c0:	00c00074 	movhi	r3,1
    10c4:	18f2ec04 	addi	r3,r3,-13392
    10c8:	1880000b 	ldhu	r2,0(r3)
    10cc:	e0bff48d 	sth	r2,-46(fp)
    10d0:	1880008b 	ldhu	r2,2(r3)
    10d4:	e0bff50d 	sth	r2,-44(fp)
    10d8:	1880010b 	ldhu	r2,4(r3)
    10dc:	e0bff58d 	sth	r2,-42(fp)
    10e0:	1880018b 	ldhu	r2,6(r3)
    10e4:	e0bff60d 	sth	r2,-40(fp)
    10e8:	e03ff68d 	sth	zero,-38(fp)
	char text_Denoise[10] = "Denoise\0";
    10ec:	00c00074 	movhi	r3,1
    10f0:	18f2ef04 	addi	r3,r3,-13380
    10f4:	18800017 	ldw	r2,0(r3)
    10f8:	e0bff715 	stw	r2,-36(fp)
    10fc:	18800117 	ldw	r2,4(r3)
    1100:	e0bff815 	stw	r2,-32(fp)
    1104:	18800203 	ldbu	r2,8(r3)
    1108:	e0bff905 	stb	r2,-28(fp)
    110c:	e03ff945 	stb	zero,-27(fp)
	char text_play[10] = "Play\0";
    1110:	00c00074 	movhi	r3,1
    1114:	18f2f204 	addi	r3,r3,-13368
    1118:	1880000b 	ldhu	r2,0(r3)
    111c:	e0bff98d 	sth	r2,-26(fp)
    1120:	1880008b 	ldhu	r2,2(r3)
    1124:	e0bffa0d 	sth	r2,-24(fp)
    1128:	1880010b 	ldhu	r2,4(r3)
    112c:	e0bffa8d 	sth	r2,-22(fp)
    1130:	e03ffb0d 	sth	zero,-20(fp)
    1134:	e03ffb8d 	sth	zero,-18(fp)
	char text_record[10] = "Record\0";
    1138:	00c00074 	movhi	r3,1
    113c:	18f2f504 	addi	r3,r3,-13356
    1140:	18800017 	ldw	r2,0(r3)
    1144:	e0bffc15 	stw	r2,-16(fp)
    1148:	18800117 	ldw	r2,4(r3)
    114c:	e0bffd15 	stw	r2,-12(fp)
    1150:	e03ffe0d 	sth	zero,-8(fp)


	/* output text message to the LCD */
	alt_up_character_lcd_set_cursor_pos (lcd_dev, 0, 0);	// set LCD cursor location to top row
    1154:	e13fcc17 	ldw	r4,-208(fp)
    1158:	000b883a 	mov	r5,zero
    115c:	000d883a 	mov	r6,zero
    1160:	00060440 	call	6044 <alt_up_character_lcd_set_cursor_pos>
	alt_up_character_lcd_string (lcd_dev, text_top_LCD);
    1164:	e17fd404 	addi	r5,fp,-176
    1168:	e13fcc17 	ldw	r4,-208(fp)
    116c:	0005f800 	call	5f80 <alt_up_character_lcd_string>
	alt_up_character_lcd_cursor_off (lcd_dev);				// turn off the LCD cursor 
    1170:	e13fcc17 	ldw	r4,-208(fp)
    1174:	00062ac0 	call	62ac <alt_up_character_lcd_cursor_off>

	/* open the pixel buffer */
	pixel_buffer_dev = alt_up_pixel_buffer_dma_open_dev ("/dev/VGA_Pixel_Buffer");
    1178:	01000074 	movhi	r4,1
    117c:	21329904 	addi	r4,r4,-13724
    1180:	000780c0 	call	780c <alt_up_pixel_buffer_dma_open_dev>
    1184:	e0bfc915 	stw	r2,-220(fp)
	if ( pixel_buffer_dev == NULL)
    1188:	e0bfc917 	ldw	r2,-220(fp)
    118c:	1004c03a 	cmpne	r2,r2,zero
    1190:	1000041e 	bne	r2,zero,11a4 <main+0x4d8>
		alt_printf ("Error: could not open pixel buffer device\n");
    1194:	01000074 	movhi	r4,1
    1198:	21329f04 	addi	r4,r4,-13700
    119c:	00043300 	call	4330 <alt_printf>
    11a0:	00000306 	br	11b0 <main+0x4e4>
	else
		alt_printf ("Opened pixel buffer device\n");
    11a4:	01000074 	movhi	r4,1
    11a8:	2132aa04 	addi	r4,r4,-13656
    11ac:	00043300 	call	4330 <alt_printf>

	/* the following variables give the size of the pixel buffer */
	screen_x = 319; screen_y = 239;
    11b0:	00804fc4 	movi	r2,319
    11b4:	e0bfbe15 	stw	r2,-264(fp)
    11b8:	00803bc4 	movi	r2,239
    11bc:	e0bfbd15 	stw	r2,-268(fp)
	color = 0x5550;		// a dark grey color
    11c0:	00955404 	movi	r2,21840
    11c4:	e0bfba0d 	sth	r2,-280(fp)
	alt_up_pixel_buffer_dma_draw_box (pixel_buffer_dev, 0, 0, screen_x, 
    11c8:	e0ffba0f 	ldh	r3,-280(fp)
    11cc:	e0bfbd17 	ldw	r2,-268(fp)
    11d0:	d8800015 	stw	r2,0(sp)
    11d4:	d8c00115 	stw	r3,4(sp)
    11d8:	d8000215 	stw	zero,8(sp)
    11dc:	e13fc917 	ldw	r4,-220(fp)
    11e0:	000b883a 	mov	r5,zero
    11e4:	000d883a 	mov	r6,zero
    11e8:	e1ffbe17 	ldw	r7,-264(fp)
    11ec:	0007c340 	call	7c34 <alt_up_pixel_buffer_dma_draw_box>
	// color = 0x187F;		// a medium blue color
	// alt_up_pixel_buffer_dma_draw_box (pixel_buffer_dev, blue_x1 * 4, blue_y1 * 4, blue_x2 * 4, 
	// 	blue_y2 * 4, color, 0);

	/* output text message in the middle of the VGA monitor */
	char_buffer_dev = alt_up_char_buffer_open_dev ("/dev/VGA_Char_Buffer");
    11f0:	01000074 	movhi	r4,1
    11f4:	2132b104 	addi	r4,r4,-13628
    11f8:	000758c0 	call	758c <alt_up_char_buffer_open_dev>
    11fc:	e0bfca15 	stw	r2,-216(fp)
	if ( char_buffer_dev == NULL)
    1200:	e0bfca17 	ldw	r2,-216(fp)
    1204:	1004c03a 	cmpne	r2,r2,zero
    1208:	1000041e 	bne	r2,zero,121c <main+0x550>
		alt_printf ("Error: could not open character buffer device\n");
    120c:	01000074 	movhi	r4,1
    1210:	2132b704 	addi	r4,r4,-13604
    1214:	00043300 	call	4330 <alt_printf>
    1218:	00000306 	br	1228 <main+0x55c>
	else
		alt_printf ("Opened character buffer device\n");
    121c:	01000074 	movhi	r4,1
    1220:	2132c304 	addi	r4,r4,-13556
    1224:	00043300 	call	4330 <alt_printf>



	// Place your code here
	
	int margin = 10;
    1228:	00800284 	movi	r2,10
    122c:	e0bfac15 	stw	r2,-336(fp)
	int space_width = 2;
    1230:	00800084 	movi	r2,2
    1234:	e0bfab15 	stw	r2,-340(fp)
	int rect_width = (320 - margin * 2 - space_width * (N - 1)) / N;
    1238:	e0bfac17 	ldw	r2,-336(fp)
    123c:	1085883a 	add	r2,r2,r2
    1240:	0087c83a 	sub	r3,zero,r2
    1244:	e0bfab17 	ldw	r2,-340(fp)
    1248:	10bffb64 	muli	r2,r2,-19
    124c:	1885883a 	add	r2,r3,r2
    1250:	10c05004 	addi	r3,r2,320
    1254:	00800504 	movi	r2,20
    1258:	1885283a 	div	r2,r3,r2
    125c:	e0bfaa15 	stw	r2,-344(fp)
	for(i = 0; i < N; i++){
    1260:	e03fd215 	stw	zero,-184(fp)
    1264:	00001c06 	br	12d8 <main+0x60c>
		rects[i][0] = margin + 13 * i + 2 * i;
    1268:	e17fd217 	ldw	r5,-184(fp)
    126c:	e0bfd217 	ldw	r2,-184(fp)
    1270:	10c003e4 	muli	r3,r2,15
    1274:	e0bfac17 	ldw	r2,-336(fp)
    1278:	1889883a 	add	r4,r3,r2
    127c:	00c01ef4 	movhi	r3,123
    1280:	18c84904 	addi	r3,r3,8484
    1284:	280490fa 	slli	r2,r5,3
    1288:	10c5883a 	add	r2,r2,r3
    128c:	11000015 	stw	r4,0(r2)
		rects[i][1] = margin + 13 * (i + 1) + 2 * i;
    1290:	e17fd217 	ldw	r5,-184(fp)
    1294:	e0bfd217 	ldw	r2,-184(fp)
    1298:	10c00364 	muli	r3,r2,13
    129c:	e0bfac17 	ldw	r2,-336(fp)
    12a0:	1887883a 	add	r3,r3,r2
    12a4:	e0bfd217 	ldw	r2,-184(fp)
    12a8:	1085883a 	add	r2,r2,r2
    12ac:	1885883a 	add	r2,r3,r2
    12b0:	11000344 	addi	r4,r2,13
    12b4:	00c01ef4 	movhi	r3,123
    12b8:	18c84904 	addi	r3,r3,8484
    12bc:	280490fa 	slli	r2,r5,3
    12c0:	10c5883a 	add	r2,r2,r3
    12c4:	10800104 	addi	r2,r2,4
    12c8:	11000015 	stw	r4,0(r2)
	// Place your code here
	
	int margin = 10;
	int space_width = 2;
	int rect_width = (320 - margin * 2 - space_width * (N - 1)) / N;
	for(i = 0; i < N; i++){
    12cc:	e0bfd217 	ldw	r2,-184(fp)
    12d0:	10800044 	addi	r2,r2,1
    12d4:	e0bfd215 	stw	r2,-184(fp)
    12d8:	e0bfd217 	ldw	r2,-184(fp)
    12dc:	10800510 	cmplti	r2,r2,20
    12e0:	103fe11e 	bne	r2,zero,1268 <main+0x59c>

	//End of your code here

while (1)
	{
		if(new_record_flag){ // if new record done, draw all objects again
    12e4:	00800074 	movhi	r2,1
    12e8:	10bb6004 	addi	r2,r2,-4736
    12ec:	1080000b 	ldhu	r2,0(r2)
    12f0:	10bfffcc 	andi	r2,r2,65535
    12f4:	10a0001c 	xori	r2,r2,32768
    12f8:	10a00004 	addi	r2,r2,-32768
    12fc:	1005003a 	cmpeq	r2,r2,zero
    1300:	10007f1e 	bne	r2,zero,1500 <main+0x834>
			color = 0x5550;		// a dark grey color
    1304:	00955404 	movi	r2,21840
    1308:	e0bfba0d 	sth	r2,-280(fp)
			alt_up_pixel_buffer_dma_draw_box (pixel_buffer_dev, 0, 0, screen_x, 
    130c:	e0ffba0f 	ldh	r3,-280(fp)
    1310:	e0bfbd17 	ldw	r2,-268(fp)
    1314:	d8800015 	stw	r2,0(sp)
    1318:	d8c00115 	stw	r3,4(sp)
    131c:	d8000215 	stw	zero,8(sp)
    1320:	e13fc917 	ldw	r4,-220(fp)
    1324:	000b883a 	mov	r5,zero
    1328:	000d883a 	mov	r6,zero
    132c:	e1ffbe17 	ldw	r7,-264(fp)
    1330:	0007c340 	call	7c34 <alt_up_pixel_buffer_dma_draw_box>
				screen_y, color, 0); // fill the screen
			record_box_x1 = 35; record_box_x2 = 100; record_box_y1 = 20; record_box_y2 = 64;
    1334:	008008c4 	movi	r2,35
    1338:	e0bfb915 	stw	r2,-284(fp)
    133c:	00801904 	movi	r2,100
    1340:	e0bfb815 	stw	r2,-288(fp)
    1344:	00800504 	movi	r2,20
    1348:	e0bfb715 	stw	r2,-292(fp)
    134c:	00801004 	movi	r2,64
    1350:	e0bfb615 	stw	r2,-296(fp)
			// character coords * 4 since characters are 4 x 4 pixel buffer coords (8 x 8 VGA coords)
			color = 0x6F00;		// a bad yellow color
    1354:	009bc004 	movi	r2,28416
    1358:	e0bfba0d 	sth	r2,-280(fp)
			alt_up_pixel_buffer_dma_draw_box (pixel_buffer_dev, record_box_x1, record_box_y1,
    135c:	e0ffba0f 	ldh	r3,-280(fp)
    1360:	e0bfb617 	ldw	r2,-296(fp)
    1364:	d8800015 	stw	r2,0(sp)
    1368:	d8c00115 	stw	r3,4(sp)
    136c:	d8000215 	stw	zero,8(sp)
    1370:	e13fc917 	ldw	r4,-220(fp)
    1374:	e17fb917 	ldw	r5,-284(fp)
    1378:	e1bfb717 	ldw	r6,-292(fp)
    137c:	e1ffb817 	ldw	r7,-288(fp)
    1380:	0007c340 	call	7c34 <alt_up_pixel_buffer_dma_draw_box>
											record_box_x2, record_box_y2, color, 0);
			play_box_x1 = 125; play_box_x2 = 190; play_box_y1 = 20; play_box_y2 = 64;
    1384:	00801f44 	movi	r2,125
    1388:	e0bfb515 	stw	r2,-300(fp)
    138c:	00802f84 	movi	r2,190
    1390:	e0bfb415 	stw	r2,-304(fp)
    1394:	00800504 	movi	r2,20
    1398:	e0bfb315 	stw	r2,-308(fp)
    139c:	00801004 	movi	r2,64
    13a0:	e0bfb215 	stw	r2,-312(fp)
			alt_up_pixel_buffer_dma_draw_box (pixel_buffer_dev, play_box_x1, play_box_y1,
    13a4:	e0ffba0f 	ldh	r3,-280(fp)
    13a8:	e0bfb217 	ldw	r2,-312(fp)
    13ac:	d8800015 	stw	r2,0(sp)
    13b0:	d8c00115 	stw	r3,4(sp)
    13b4:	d8000215 	stw	zero,8(sp)
    13b8:	e13fc917 	ldw	r4,-220(fp)
    13bc:	e17fb517 	ldw	r5,-300(fp)
    13c0:	e1bfb317 	ldw	r6,-308(fp)
    13c4:	e1ffb417 	ldw	r7,-304(fp)
    13c8:	0007c340 	call	7c34 <alt_up_pixel_buffer_dma_draw_box>
											play_box_x2, play_box_y2, color, 0);
			Denoise_box_x1 = 215; Denoise_box_x2 = 280; Denoise_box_y1 = 20; Denoise_box_y2 = 64;
    13cc:	008035c4 	movi	r2,215
    13d0:	e0bfb115 	stw	r2,-316(fp)
    13d4:	00804604 	movi	r2,280
    13d8:	e0bfb015 	stw	r2,-320(fp)
    13dc:	00800504 	movi	r2,20
    13e0:	e0bfaf15 	stw	r2,-324(fp)
    13e4:	00801004 	movi	r2,64
    13e8:	e0bfae15 	stw	r2,-328(fp)
			alt_up_pixel_buffer_dma_draw_box (pixel_buffer_dev, Denoise_box_x1, Denoise_box_y1,
    13ec:	e0ffba0f 	ldh	r3,-280(fp)
    13f0:	e0bfae17 	ldw	r2,-328(fp)
    13f4:	d8800015 	stw	r2,0(sp)
    13f8:	d8c00115 	stw	r3,4(sp)
    13fc:	d8000215 	stw	zero,8(sp)
    1400:	e13fc917 	ldw	r4,-220(fp)
    1404:	e17fb117 	ldw	r5,-316(fp)
    1408:	e1bfaf17 	ldw	r6,-324(fp)
    140c:	e1ffb017 	ldw	r7,-320(fp)
    1410:	0007c340 	call	7c34 <alt_up_pixel_buffer_dma_draw_box>
											Denoise_box_x2, Denoise_box_y2, color, 0);

			alt_up_char_buffer_string (char_buffer_dev, text_record, 14, 10);
    1414:	e17ffc04 	addi	r5,fp,-16
    1418:	e13fca17 	ldw	r4,-216(fp)
    141c:	01800384 	movi	r6,14
    1420:	01c00284 	movi	r7,10
    1424:	000769c0 	call	769c <alt_up_char_buffer_string>
			alt_up_char_buffer_string (char_buffer_dev, text_play, 37, 10);
    1428:	e17ff984 	addi	r5,fp,-26
    142c:	e13fca17 	ldw	r4,-216(fp)
    1430:	01800944 	movi	r6,37
    1434:	01c00284 	movi	r7,10
    1438:	000769c0 	call	769c <alt_up_char_buffer_string>
			alt_up_char_buffer_string (char_buffer_dev, text_Denoise, 59, 10);
    143c:	e17ff704 	addi	r5,fp,-36
    1440:	e13fca17 	ldw	r4,-216(fp)
    1444:	01800ec4 	movi	r6,59
    1448:	01c00284 	movi	r7,10
    144c:	000769c0 	call	769c <alt_up_char_buffer_string>
			for(i = 0; i < N; i++){
    1450:	e03fd215 	stw	zero,-184(fp)
    1454:	00002206 	br	14e0 <main+0x814>
				short color;
				color = 0x6000;		// a bad yellow color
    1458:	00980004 	movi	r2,24576
    145c:	e0bfa90d 	sth	r2,-348(fp)
				alt_up_pixel_buffer_dma_draw_box (pixel_buffer_dev, rects[i][0], 200 - heights[i],
    1460:	e0bfd217 	ldw	r2,-184(fp)
    1464:	00c01ef4 	movhi	r3,123
    1468:	18c84904 	addi	r3,r3,8484
    146c:	100490fa 	slli	r2,r2,3
    1470:	10c5883a 	add	r2,r2,r3
    1474:	11400017 	ldw	r5,0(r2)
    1478:	e0bfd217 	ldw	r2,-184(fp)
    147c:	00c00074 	movhi	r3,1
    1480:	18c36304 	addi	r3,r3,3468
    1484:	1085883a 	add	r2,r2,r2
    1488:	1085883a 	add	r2,r2,r2
    148c:	10c5883a 	add	r2,r2,r3
    1490:	10c00017 	ldw	r3,0(r2)
    1494:	00803204 	movi	r2,200
    1498:	10cdc83a 	sub	r6,r2,r3
    149c:	e0bfd217 	ldw	r2,-184(fp)
    14a0:	00c01ef4 	movhi	r3,123
    14a4:	18c84904 	addi	r3,r3,8484
    14a8:	100490fa 	slli	r2,r2,3
    14ac:	10c5883a 	add	r2,r2,r3
    14b0:	10800104 	addi	r2,r2,4
    14b4:	11c00017 	ldw	r7,0(r2)
    14b8:	e0ffa90f 	ldh	r3,-348(fp)
    14bc:	00803204 	movi	r2,200
    14c0:	d8800015 	stw	r2,0(sp)
    14c4:	d8c00115 	stw	r3,4(sp)
    14c8:	d8000215 	stw	zero,8(sp)
    14cc:	e13fc917 	ldw	r4,-220(fp)
    14d0:	0007c340 	call	7c34 <alt_up_pixel_buffer_dma_draw_box>
											Denoise_box_x2, Denoise_box_y2, color, 0);

			alt_up_char_buffer_string (char_buffer_dev, text_record, 14, 10);
			alt_up_char_buffer_string (char_buffer_dev, text_play, 37, 10);
			alt_up_char_buffer_string (char_buffer_dev, text_Denoise, 59, 10);
			for(i = 0; i < N; i++){
    14d4:	e0bfd217 	ldw	r2,-184(fp)
    14d8:	10800044 	addi	r2,r2,1
    14dc:	e0bfd215 	stw	r2,-184(fp)
    14e0:	e0bfd217 	ldw	r2,-184(fp)
    14e4:	10800510 	cmplti	r2,r2,20
    14e8:	103fdb1e 	bne	r2,zero,1458 <main+0x78c>
				short color;
				color = 0x6000;		// a bad yellow color
				alt_up_pixel_buffer_dma_draw_box (pixel_buffer_dev, rects[i][0], 200 - heights[i],
											rects[i][1], 200, color, 0);
			}
			rect_th = 0;
    14ec:	d027e315 	stw	zero,-24692(gp)
			new_record_flag = 0;
    14f0:	00800074 	movhi	r2,1
    14f4:	10bb6004 	addi	r2,r2,-4736
    14f8:	1000000d 	sth	zero,0(r2)
			all_drawn = 0;
    14fc:	d027e20d 	sth	zero,-24696(gp)
		}
		if(flag_play){ // if each N data passed flag_play will be 1 and we should draw a new rect
    1500:	00800074 	movhi	r2,1
    1504:	10833a04 	addi	r2,r2,3304
    1508:	1080000b 	ldhu	r2,0(r2)
    150c:	10bfffcc 	andi	r2,r2,65535
    1510:	10a0001c 	xori	r2,r2,32768
    1514:	10a00004 	addi	r2,r2,-32768
    1518:	1005003a 	cmpeq	r2,r2,zero
    151c:	1000231e 	bne	r2,zero,15ac <main+0x8e0>
			color = 0x400F;
    1520:	009003c4 	movi	r2,16399
    1524:	e0bfba0d 	sth	r2,-280(fp)
			alt_up_pixel_buffer_dma_draw_box (pixel_buffer_dev, rects[rect_th][0], 205,
    1528:	d0a7e317 	ldw	r2,-24692(gp)
    152c:	00c01ef4 	movhi	r3,123
    1530:	18c84904 	addi	r3,r3,8484
    1534:	100490fa 	slli	r2,r2,3
    1538:	10c5883a 	add	r2,r2,r3
    153c:	11400017 	ldw	r5,0(r2)
    1540:	d0a7e317 	ldw	r2,-24692(gp)
    1544:	00c01ef4 	movhi	r3,123
    1548:	18c84904 	addi	r3,r3,8484
    154c:	100490fa 	slli	r2,r2,3
    1550:	10c5883a 	add	r2,r2,r3
    1554:	10800104 	addi	r2,r2,4
    1558:	11c00017 	ldw	r7,0(r2)
    155c:	e0ffba0f 	ldh	r3,-280(fp)
    1560:	00803704 	movi	r2,220
    1564:	d8800015 	stw	r2,0(sp)
    1568:	d8c00115 	stw	r3,4(sp)
    156c:	d8000215 	stw	zero,8(sp)
    1570:	e13fc917 	ldw	r4,-220(fp)
    1574:	01803344 	movi	r6,205
    1578:	0007c340 	call	7c34 <alt_up_pixel_buffer_dma_draw_box>
											rects[rect_th][1], 220, color, 0);
			flag_play = 0;
    157c:	00800074 	movhi	r2,1
    1580:	10833a04 	addi	r2,r2,3304
    1584:	1000000d 	sth	zero,0(r2)
			rect_th++;
    1588:	d0a7e317 	ldw	r2,-24692(gp)
    158c:	10800044 	addi	r2,r2,1
    1590:	d0a7e315 	stw	r2,-24692(gp)
			if(rect_th > N){
    1594:	d0a7e317 	ldw	r2,-24692(gp)
    1598:	10800550 	cmplti	r2,r2,21
    159c:	1000031e 	bne	r2,zero,15ac <main+0x8e0>
				rect_th = 0;
    15a0:	d027e315 	stw	zero,-24692(gp)
				all_drawn = 1;
    15a4:	00800044 	movi	r2,1
    15a8:	d0a7e20d 	sth	r2,-24696(gp)
		/* also, display any PS/2 data (from its interrupt service routine) on HEX displays */
		// HEX_PS2 (byte1, byte2, byte3);


		
		if(flag_mouse){
    15ac:	00800074 	movhi	r2,1
    15b0:	10833cc4 	addi	r2,r2,3315
    15b4:	10800003 	ldbu	r2,0(r2)
    15b8:	10803fcc 	andi	r2,r2,255
    15bc:	1005003a 	cmpeq	r2,r2,zero
    15c0:	1000061e 	bne	r2,zero,15dc <main+0x910>
			Mouse_ISR(&up_dev);
    15c4:	01000fb4 	movhi	r4,62
    15c8:	21060104 	addi	r4,r4,6148
    15cc:	0001d100 	call	1d10 <Mouse_ISR>
			flag_mouse = 0;
    15d0:	00800074 	movhi	r2,1
    15d4:	10833cc4 	addi	r2,r2,3315
    15d8:	10000005 	stb	zero,0(r2)
		// alt_up_pixel_buffer_dma_draw_box (pixel_buffer_dev, pre_x_axis_mouse - 2, pre_y_axis_mouse - 2,
		// 								pre_x_axis_mouse + 2, pre_y_axis_mouse + 2, color, 0);
		// // short color = 0xFFFF;		// a White color
		// alt_up_pixel_buffer_dma_draw_box (pixel_buffer_dev, x_axis_mouse - 2, y_axis_mouse - 2,
		// 								x_axis_mouse + 2, y_axis_mouse + 2, color, 0);
		if(pre_x_axis_mouse != x_axis_mouse || pre_y_axis_mouse != y_axis_mouse){
    15dc:	d0a7e48b 	ldhu	r2,-24686(gp)
    15e0:	e0ffd38f 	ldh	r3,-178(fp)
    15e4:	10bfffcc 	andi	r2,r2,65535
    15e8:	10a0001c 	xori	r2,r2,32768
    15ec:	10a00004 	addi	r2,r2,-32768
    15f0:	1880061e 	bne	r3,r2,160c <main+0x940>
    15f4:	d0a7e40b 	ldhu	r2,-24688(gp)
    15f8:	e0ffd30f 	ldh	r3,-180(fp)
    15fc:	10bfffcc 	andi	r2,r2,65535
    1600:	10a0001c 	xori	r2,r2,32768
    1604:	10a00004 	addi	r2,r2,-32768
    1608:	18803226 	beq	r3,r2,16d4 <main+0xa08>
			for(j = 0; j < 8; j++){ //clear previous mouse cursor
    160c:	e03fd115 	stw	zero,-188(fp)
    1610:	00002d06 	br	16c8 <main+0x9fc>
				for(i = 0; i < 16; i++){
    1614:	e03fd215 	stw	zero,-184(fp)
    1618:	00002506 	br	16b0 <main+0x9e4>
					if(cursor_shape[i][j] != -1)
    161c:	e0bfd217 	ldw	r2,-184(fp)
    1620:	e0ffd117 	ldw	r3,-188(fp)
    1624:	01000074 	movhi	r4,1
    1628:	2133af04 	addi	r4,r4,-12612
    162c:	100490fa 	slli	r2,r2,3
    1630:	10c5883a 	add	r2,r2,r3
    1634:	1085883a 	add	r2,r2,r2
    1638:	1105883a 	add	r2,r2,r4
    163c:	1080000b 	ldhu	r2,0(r2)
    1640:	10bfffcc 	andi	r2,r2,65535
    1644:	10a0001c 	xori	r2,r2,32768
    1648:	10a00004 	addi	r2,r2,-32768
    164c:	10bfffe0 	cmpeqi	r2,r2,-1
    1650:	1000141e 	bne	r2,zero,16a4 <main+0x9d8>
						alt_up_pixel_buffer_dma_draw(pixel_buffer_dev,
    1654:	e0ffd38f 	ldh	r3,-178(fp)
    1658:	e0bfd117 	ldw	r2,-188(fp)
    165c:	1889883a 	add	r4,r3,r2
    1660:	e0ffd30f 	ldh	r3,-180(fp)
    1664:	e0bfd217 	ldw	r2,-184(fp)
    1668:	188b883a 	add	r5,r3,r2
    166c:	00018b40 	call	18b4 <mouse_color>
    1670:	117fffcc 	andi	r5,r2,65535
    1674:	2960001c 	xori	r5,r5,32768
    1678:	29600004 	addi	r5,r5,-32768
    167c:	e0ffd38f 	ldh	r3,-178(fp)
    1680:	e0bfd117 	ldw	r2,-188(fp)
    1684:	1885883a 	add	r2,r3,r2
    1688:	100d883a 	mov	r6,r2
    168c:	e0ffd30f 	ldh	r3,-180(fp)
    1690:	e0bfd217 	ldw	r2,-184(fp)
    1694:	1885883a 	add	r2,r3,r2
    1698:	100f883a 	mov	r7,r2
    169c:	e13fc917 	ldw	r4,-220(fp)
    16a0:	000784c0 	call	784c <alt_up_pixel_buffer_dma_draw>
		// // short color = 0xFFFF;		// a White color
		// alt_up_pixel_buffer_dma_draw_box (pixel_buffer_dev, x_axis_mouse - 2, y_axis_mouse - 2,
		// 								x_axis_mouse + 2, y_axis_mouse + 2, color, 0);
		if(pre_x_axis_mouse != x_axis_mouse || pre_y_axis_mouse != y_axis_mouse){
			for(j = 0; j < 8; j++){ //clear previous mouse cursor
				for(i = 0; i < 16; i++){
    16a4:	e0bfd217 	ldw	r2,-184(fp)
    16a8:	10800044 	addi	r2,r2,1
    16ac:	e0bfd215 	stw	r2,-184(fp)
    16b0:	e0bfd217 	ldw	r2,-184(fp)
    16b4:	10800410 	cmplti	r2,r2,16
    16b8:	103fd81e 	bne	r2,zero,161c <main+0x950>
		// 								pre_x_axis_mouse + 2, pre_y_axis_mouse + 2, color, 0);
		// // short color = 0xFFFF;		// a White color
		// alt_up_pixel_buffer_dma_draw_box (pixel_buffer_dev, x_axis_mouse - 2, y_axis_mouse - 2,
		// 								x_axis_mouse + 2, y_axis_mouse + 2, color, 0);
		if(pre_x_axis_mouse != x_axis_mouse || pre_y_axis_mouse != y_axis_mouse){
			for(j = 0; j < 8; j++){ //clear previous mouse cursor
    16bc:	e0bfd117 	ldw	r2,-188(fp)
    16c0:	10800044 	addi	r2,r2,1
    16c4:	e0bfd115 	stw	r2,-188(fp)
    16c8:	e0bfd117 	ldw	r2,-188(fp)
    16cc:	10800210 	cmplti	r2,r2,8
    16d0:	103fd01e 	bne	r2,zero,1614 <main+0x948>
				}
			}
		}


		for(j =0; j < 8; j++){ //print mouse cursor
    16d4:	e03fd115 	stw	zero,-188(fp)
    16d8:	00003706 	br	17b8 <main+0xaec>
			for(i = 0; i < 16; i++){
    16dc:	e03fd215 	stw	zero,-184(fp)
    16e0:	00002f06 	br	17a0 <main+0xad4>
				if(cursor_shape[i][j] != -1)
    16e4:	e0bfd217 	ldw	r2,-184(fp)
    16e8:	e0ffd117 	ldw	r3,-188(fp)
    16ec:	01000074 	movhi	r4,1
    16f0:	2133af04 	addi	r4,r4,-12612
    16f4:	100490fa 	slli	r2,r2,3
    16f8:	10c5883a 	add	r2,r2,r3
    16fc:	1085883a 	add	r2,r2,r2
    1700:	1105883a 	add	r2,r2,r4
    1704:	1080000b 	ldhu	r2,0(r2)
    1708:	10bfffcc 	andi	r2,r2,65535
    170c:	10a0001c 	xori	r2,r2,32768
    1710:	10a00004 	addi	r2,r2,-32768
    1714:	10bfffe0 	cmpeqi	r2,r2,-1
    1718:	10001e1e 	bne	r2,zero,1794 <main+0xac8>
					alt_up_pixel_buffer_dma_draw(pixel_buffer_dev, cursor_shape[i][j] * (-1),
    171c:	e0bfd217 	ldw	r2,-184(fp)
    1720:	e0ffd117 	ldw	r3,-188(fp)
    1724:	01000074 	movhi	r4,1
    1728:	2133af04 	addi	r4,r4,-12612
    172c:	100490fa 	slli	r2,r2,3
    1730:	10c5883a 	add	r2,r2,r3
    1734:	1085883a 	add	r2,r2,r2
    1738:	1105883a 	add	r2,r2,r4
    173c:	1080000b 	ldhu	r2,0(r2)
    1740:	10bfffcc 	andi	r2,r2,65535
    1744:	10a0001c 	xori	r2,r2,32768
    1748:	10a00004 	addi	r2,r2,-32768
    174c:	0085c83a 	sub	r2,zero,r2
    1750:	100b883a 	mov	r5,r2
    1754:	d0a7e48b 	ldhu	r2,-24686(gp)
    1758:	10ffffcc 	andi	r3,r2,65535
    175c:	18e0001c 	xori	r3,r3,32768
    1760:	18e00004 	addi	r3,r3,-32768
    1764:	e0bfd117 	ldw	r2,-188(fp)
    1768:	1885883a 	add	r2,r3,r2
    176c:	100d883a 	mov	r6,r2
    1770:	d0a7e40b 	ldhu	r2,-24688(gp)
    1774:	10ffffcc 	andi	r3,r2,65535
    1778:	18e0001c 	xori	r3,r3,32768
    177c:	18e00004 	addi	r3,r3,-32768
    1780:	e0bfd217 	ldw	r2,-184(fp)
    1784:	1885883a 	add	r2,r3,r2
    1788:	100f883a 	mov	r7,r2
    178c:	e13fc917 	ldw	r4,-220(fp)
    1790:	000784c0 	call	784c <alt_up_pixel_buffer_dma_draw>
			}
		}


		for(j =0; j < 8; j++){ //print mouse cursor
			for(i = 0; i < 16; i++){
    1794:	e0bfd217 	ldw	r2,-184(fp)
    1798:	10800044 	addi	r2,r2,1
    179c:	e0bfd215 	stw	r2,-184(fp)
    17a0:	e0bfd217 	ldw	r2,-184(fp)
    17a4:	10800410 	cmplti	r2,r2,16
    17a8:	103fce1e 	bne	r2,zero,16e4 <main+0xa18>
				}
			}
		}


		for(j =0; j < 8; j++){ //print mouse cursor
    17ac:	e0bfd117 	ldw	r2,-188(fp)
    17b0:	10800044 	addi	r2,r2,1
    17b4:	e0bfd115 	stw	r2,-188(fp)
    17b8:	e0bfd117 	ldw	r2,-188(fp)
    17bc:	10800210 	cmplti	r2,r2,8
    17c0:	103fc61e 	bne	r2,zero,16dc <main+0xa10>
		}




		pre_x_axis_mouse = x_axis_mouse;
    17c4:	d0a7e48b 	ldhu	r2,-24686(gp)
    17c8:	e0bfd38d 	sth	r2,-178(fp)
		pre_y_axis_mouse = y_axis_mouse;
    17cc:	d0a7e40b 	ldhu	r2,-24688(gp)
    17d0:	e0bfd30d 	sth	r2,-180(fp)

		if(!flag_is_playing){
    17d4:	00800074 	movhi	r2,1
    17d8:	10833a84 	addi	r2,r2,3306
    17dc:	1080000b 	ldhu	r2,0(r2)
    17e0:	10bfffcc 	andi	r2,r2,65535
    17e4:	10a0001c 	xori	r2,r2,32768
    17e8:	10a00004 	addi	r2,r2,-32768
    17ec:	1004c03a 	cmpne	r2,r2,zero
    17f0:	10000d1e 	bne	r2,zero,1828 <main+0xb5c>
			command = command_det(valid_byte1); // 0:record, 1:play, 2:Denoise
    17f4:	00800074 	movhi	r2,1
    17f8:	10834104 	addi	r2,r2,3332
    17fc:	10800003 	ldbu	r2,0(r2)
    1800:	11003fcc 	andi	r4,r2,255
    1804:	00020700 	call	2070 <command_det>
    1808:	1007883a 	mov	r3,r2
    180c:	00800074 	movhi	r2,1
    1810:	10833c84 	addi	r2,r2,3314
    1814:	10c00005 	stb	r3,0(r2)
			run_command(&up_dev, pixel_buffer_dev);
    1818:	01000fb4 	movhi	r4,62
    181c:	21060104 	addi	r4,r4,6148
    1820:	e17fc917 	ldw	r5,-220(fp)
    1824:	0001f700 	call	1f70 <run_command>
		}

		if(command == 1){
    1828:	00800074 	movhi	r2,1
    182c:	10833c84 	addi	r2,r2,3314
    1830:	10800003 	ldbu	r2,0(r2)
    1834:	10803fcc 	andi	r2,r2,255
    1838:	10800058 	cmpnei	r2,r2,1
    183c:	1000131e 	bne	r2,zero,188c <main+0xbc0>
			color = 0x5550;
    1840:	00955404 	movi	r2,21840
    1844:	e0bfba0d 	sth	r2,-280(fp)
			alt_up_pixel_buffer_dma_draw_box (pixel_buffer_dev, rects[0][0], 205,
    1848:	00801ef4 	movhi	r2,123
    184c:	10884904 	addi	r2,r2,8484
    1850:	11400017 	ldw	r5,0(r2)
    1854:	00801ef4 	movhi	r2,123
    1858:	10884904 	addi	r2,r2,8484
    185c:	11c02917 	ldw	r7,164(r2)
    1860:	e0ffba0f 	ldh	r3,-280(fp)
    1864:	00803704 	movi	r2,220
    1868:	d8800015 	stw	r2,0(sp)
    186c:	d8c00115 	stw	r3,4(sp)
    1870:	d8000215 	stw	zero,8(sp)
    1874:	e13fc917 	ldw	r4,-220(fp)
    1878:	01803344 	movi	r6,205
    187c:	0007c340 	call	7c34 <alt_up_pixel_buffer_dma_draw_box>
											rects[N][1], 220, color, 0);
			command = 0;
    1880:	00800074 	movhi	r2,1
    1884:	10833c84 	addi	r2,r2,3314
    1888:	10000005 	stb	zero,0(r2)
		}
		

		timeout = 0;
    188c:	00800074 	movhi	r2,1
    1890:	10833e04 	addi	r2,r2,3320
    1894:	10000015 	stw	zero,0(r2)
	}
    1898:	003e9206 	br	12e4 <main+0x618>
    189c:	e0bfff17 	ldw	r2,-4(fp)

}
    18a0:	e037883a 	mov	sp,fp
    18a4:	dfc00117 	ldw	ra,4(sp)
    18a8:	df000017 	ldw	fp,0(sp)
    18ac:	dec00204 	addi	sp,sp,8
    18b0:	f800283a 	ret

000018b4 <mouse_color>:
short mouse_color(int i, int j){
    18b4:	defff904 	addi	sp,sp,-28
    18b8:	df000615 	stw	fp,24(sp)
    18bc:	df000604 	addi	fp,sp,24
    18c0:	e13ffc15 	stw	r4,-16(fp)
    18c4:	e17ffd15 	stw	r5,-12(fp)
	if(i >= 35 && i <= 100 &&
    18c8:	e0bffc17 	ldw	r2,-16(fp)
    18cc:	108008d0 	cmplti	r2,r2,35
    18d0:	10000c1e 	bne	r2,zero,1904 <mouse_color+0x50>
    18d4:	e0bffc17 	ldw	r2,-16(fp)
    18d8:	10801948 	cmpgei	r2,r2,101
    18dc:	1000091e 	bne	r2,zero,1904 <mouse_color+0x50>
    18e0:	e0bffd17 	ldw	r2,-12(fp)
    18e4:	10800510 	cmplti	r2,r2,20
    18e8:	1000061e 	bne	r2,zero,1904 <mouse_color+0x50>
    18ec:	e0bffd17 	ldw	r2,-12(fp)
    18f0:	10801048 	cmpgei	r2,r2,65
    18f4:	1000031e 	bne	r2,zero,1904 <mouse_color+0x50>
		j >= 20 && j <= 64)
		return 0x6F00;
    18f8:	009bc004 	movi	r2,28416
    18fc:	e0bfff15 	stw	r2,-4(fp)
    1900:	00007a06 	br	1aec <mouse_color+0x238>
	else if(i >= 125 && i <= 190 &&
    1904:	e0bffc17 	ldw	r2,-16(fp)
    1908:	10801f50 	cmplti	r2,r2,125
    190c:	10000c1e 	bne	r2,zero,1940 <mouse_color+0x8c>
    1910:	e0bffc17 	ldw	r2,-16(fp)
    1914:	10802fc8 	cmpgei	r2,r2,191
    1918:	1000091e 	bne	r2,zero,1940 <mouse_color+0x8c>
    191c:	e0bffd17 	ldw	r2,-12(fp)
    1920:	10800510 	cmplti	r2,r2,20
    1924:	1000061e 	bne	r2,zero,1940 <mouse_color+0x8c>
    1928:	e0bffd17 	ldw	r2,-12(fp)
    192c:	10801048 	cmpgei	r2,r2,65
    1930:	1000031e 	bne	r2,zero,1940 <mouse_color+0x8c>
			j >= 20 && j <= 64)
		return 0x6F00;
    1934:	009bc004 	movi	r2,28416
    1938:	e0bfff15 	stw	r2,-4(fp)
    193c:	00006b06 	br	1aec <mouse_color+0x238>
	else if(i >= 215 && i <= 280 &&
    1940:	e0bffc17 	ldw	r2,-16(fp)
    1944:	108035d0 	cmplti	r2,r2,215
    1948:	10000c1e 	bne	r2,zero,197c <mouse_color+0xc8>
    194c:	e0bffc17 	ldw	r2,-16(fp)
    1950:	10804648 	cmpgei	r2,r2,281
    1954:	1000091e 	bne	r2,zero,197c <mouse_color+0xc8>
    1958:	e0bffd17 	ldw	r2,-12(fp)
    195c:	10800510 	cmplti	r2,r2,20
    1960:	1000061e 	bne	r2,zero,197c <mouse_color+0xc8>
    1964:	e0bffd17 	ldw	r2,-12(fp)
    1968:	10801048 	cmpgei	r2,r2,65
    196c:	1000031e 	bne	r2,zero,197c <mouse_color+0xc8>
			j >= 20 && j <= 64)
		return 0x6F00;
    1970:	009bc004 	movi	r2,28416
    1974:	e0bfff15 	stw	r2,-4(fp)
    1978:	00005c06 	br	1aec <mouse_color+0x238>
	int k;
	if(j <= 200){
    197c:	e0bffd17 	ldw	r2,-12(fp)
    1980:	10803248 	cmpgei	r2,r2,201
    1984:	1000281e 	bne	r2,zero,1a28 <mouse_color+0x174>
		for (k=0;k<N;k++){
    1988:	e03ffb15 	stw	zero,-20(fp)
    198c:	00002206 	br	1a18 <mouse_color+0x164>
			if(i >= rects[k][0] && i <= rects[k][1] && j >= 200 - heights[k])
    1990:	e0bffb17 	ldw	r2,-20(fp)
    1994:	00c01ef4 	movhi	r3,123
    1998:	18c84904 	addi	r3,r3,8484
    199c:	100490fa 	slli	r2,r2,3
    19a0:	10c5883a 	add	r2,r2,r3
    19a4:	10c00017 	ldw	r3,0(r2)
    19a8:	e0bffc17 	ldw	r2,-16(fp)
    19ac:	10c01716 	blt	r2,r3,1a0c <mouse_color+0x158>
    19b0:	e0bffb17 	ldw	r2,-20(fp)
    19b4:	00c01ef4 	movhi	r3,123
    19b8:	18c84904 	addi	r3,r3,8484
    19bc:	100490fa 	slli	r2,r2,3
    19c0:	10c5883a 	add	r2,r2,r3
    19c4:	10800104 	addi	r2,r2,4
    19c8:	10c00017 	ldw	r3,0(r2)
    19cc:	e0bffc17 	ldw	r2,-16(fp)
    19d0:	18800e16 	blt	r3,r2,1a0c <mouse_color+0x158>
    19d4:	e0bffb17 	ldw	r2,-20(fp)
    19d8:	00c00074 	movhi	r3,1
    19dc:	18c36304 	addi	r3,r3,3468
    19e0:	1085883a 	add	r2,r2,r2
    19e4:	1085883a 	add	r2,r2,r2
    19e8:	10c5883a 	add	r2,r2,r3
    19ec:	10c00017 	ldw	r3,0(r2)
    19f0:	00803204 	movi	r2,200
    19f4:	10c7c83a 	sub	r3,r2,r3
    19f8:	e0bffd17 	ldw	r2,-12(fp)
    19fc:	10c00316 	blt	r2,r3,1a0c <mouse_color+0x158>
				return 0x6000;
    1a00:	00980004 	movi	r2,24576
    1a04:	e0bfff15 	stw	r2,-4(fp)
    1a08:	00003806 	br	1aec <mouse_color+0x238>
	else if(i >= 215 && i <= 280 &&
			j >= 20 && j <= 64)
		return 0x6F00;
	int k;
	if(j <= 200){
		for (k=0;k<N;k++){
    1a0c:	e0bffb17 	ldw	r2,-20(fp)
    1a10:	10800044 	addi	r2,r2,1
    1a14:	e0bffb15 	stw	r2,-20(fp)
    1a18:	e0bffb17 	ldw	r2,-20(fp)
    1a1c:	10800510 	cmplti	r2,r2,20
    1a20:	103fdb1e 	bne	r2,zero,1990 <mouse_color+0xdc>
    1a24:	00002f06 	br	1ae4 <mouse_color+0x230>
			if(i >= rects[k][0] && i <= rects[k][1] && j >= 200 - heights[k])
				return 0x6000;
		}
	}
	else if(j>=205&&j<=220){
    1a28:	e0bffd17 	ldw	r2,-12(fp)
    1a2c:	10803350 	cmplti	r2,r2,205
    1a30:	10002c1e 	bne	r2,zero,1ae4 <mouse_color+0x230>
    1a34:	e0bffd17 	ldw	r2,-12(fp)
    1a38:	10803748 	cmpgei	r2,r2,221
    1a3c:	1000291e 	bne	r2,zero,1ae4 <mouse_color+0x230>
		int lim = (all_drawn == 1) ? 20 : rect_th;
    1a40:	d0a7e20b 	ldhu	r2,-24696(gp)
    1a44:	10bfffcc 	andi	r2,r2,65535
    1a48:	10a0001c 	xori	r2,r2,32768
    1a4c:	10a00004 	addi	r2,r2,-32768
    1a50:	10800060 	cmpeqi	r2,r2,1
    1a54:	1000031e 	bne	r2,zero,1a64 <mouse_color+0x1b0>
    1a58:	d0a7e317 	ldw	r2,-24692(gp)
    1a5c:	e0bffe15 	stw	r2,-8(fp)
    1a60:	00000206 	br	1a6c <mouse_color+0x1b8>
    1a64:	00800504 	movi	r2,20
    1a68:	e0bffe15 	stw	r2,-8(fp)
    1a6c:	e0bffe17 	ldw	r2,-8(fp)
    1a70:	e0bffa15 	stw	r2,-24(fp)
		for (k=0;k<lim;k++){
    1a74:	e03ffb15 	stw	zero,-20(fp)
    1a78:	00001706 	br	1ad8 <mouse_color+0x224>
			if(i >= rects[k][0] && i <= rects[k][1])
    1a7c:	e0bffb17 	ldw	r2,-20(fp)
    1a80:	00c01ef4 	movhi	r3,123
    1a84:	18c84904 	addi	r3,r3,8484
    1a88:	100490fa 	slli	r2,r2,3
    1a8c:	10c5883a 	add	r2,r2,r3
    1a90:	10c00017 	ldw	r3,0(r2)
    1a94:	e0bffc17 	ldw	r2,-16(fp)
    1a98:	10c00c16 	blt	r2,r3,1acc <mouse_color+0x218>
    1a9c:	e0bffb17 	ldw	r2,-20(fp)
    1aa0:	00c01ef4 	movhi	r3,123
    1aa4:	18c84904 	addi	r3,r3,8484
    1aa8:	100490fa 	slli	r2,r2,3
    1aac:	10c5883a 	add	r2,r2,r3
    1ab0:	10800104 	addi	r2,r2,4
    1ab4:	10c00017 	ldw	r3,0(r2)
    1ab8:	e0bffc17 	ldw	r2,-16(fp)
    1abc:	18800316 	blt	r3,r2,1acc <mouse_color+0x218>
				return 0x400F;
    1ac0:	009003c4 	movi	r2,16399
    1ac4:	e0bfff15 	stw	r2,-4(fp)
    1ac8:	00000806 	br	1aec <mouse_color+0x238>
				return 0x6000;
		}
	}
	else if(j>=205&&j<=220){
		int lim = (all_drawn == 1) ? 20 : rect_th;
		for (k=0;k<lim;k++){
    1acc:	e0bffb17 	ldw	r2,-20(fp)
    1ad0:	10800044 	addi	r2,r2,1
    1ad4:	e0bffb15 	stw	r2,-20(fp)
    1ad8:	e0fffb17 	ldw	r3,-20(fp)
    1adc:	e0bffa17 	ldw	r2,-24(fp)
    1ae0:	18bfe616 	blt	r3,r2,1a7c <mouse_color+0x1c8>
			if(i >= rects[k][0] && i <= rects[k][1])
				return 0x400F;
		}
	}

	return 0x5550;
    1ae4:	00955404 	movi	r2,21840
    1ae8:	e0bfff15 	stw	r2,-4(fp)
    1aec:	e0bfff17 	ldw	r2,-4(fp)
}
    1af0:	e037883a 	mov	sp,fp
    1af4:	df000017 	ldw	fp,0(sp)
    1af8:	dec00104 	addi	sp,sp,4
    1afc:	f800283a 	ret

00001b00 <setMouseBounds>:
void setMouseBounds(unsigned char info, unsigned char x_move, unsigned char y_move) {
    1b00:	defffb04 	addi	sp,sp,-20
    1b04:	df000415 	stw	fp,16(sp)
    1b08:	df000404 	addi	fp,sp,16
    1b0c:	e13ffd05 	stb	r4,-12(fp)
    1b10:	e17ffe05 	stb	r5,-8(fp)
    1b14:	e1bfff05 	stb	r6,-4(fp)
	signed short x_move_s = x_move, y_move_s = y_move;
    1b18:	e0bffe03 	ldbu	r2,-8(fp)
    1b1c:	e0bffc8d 	sth	r2,-14(fp)
    1b20:	e0bfff03 	ldbu	r2,-4(fp)
    1b24:	e0bffc0d 	sth	r2,-16(fp)
	if(x_move_s >> 7 & 0x01)x_move_s -= 256;
    1b28:	e0bffc8f 	ldh	r2,-14(fp)
    1b2c:	1005d1fa 	srai	r2,r2,7
    1b30:	10bfffcc 	andi	r2,r2,65535
    1b34:	1080004c 	andi	r2,r2,1
    1b38:	10803fcc 	andi	r2,r2,255
    1b3c:	1005003a 	cmpeq	r2,r2,zero
    1b40:	1000031e 	bne	r2,zero,1b50 <setMouseBounds+0x50>
    1b44:	e0bffc8b 	ldhu	r2,-14(fp)
    1b48:	10bfc004 	addi	r2,r2,-256
    1b4c:	e0bffc8d 	sth	r2,-14(fp)
	if(y_move_s >> 7 & 0x01)y_move_s -= 256;
    1b50:	e0bffc0f 	ldh	r2,-16(fp)
    1b54:	1005d1fa 	srai	r2,r2,7
    1b58:	10bfffcc 	andi	r2,r2,65535
    1b5c:	1080004c 	andi	r2,r2,1
    1b60:	10803fcc 	andi	r2,r2,255
    1b64:	1005003a 	cmpeq	r2,r2,zero
    1b68:	1000031e 	bne	r2,zero,1b78 <setMouseBounds+0x78>
    1b6c:	e0bffc0b 	ldhu	r2,-16(fp)
    1b70:	10bfc004 	addi	r2,r2,-256
    1b74:	e0bffc0d 	sth	r2,-16(fp)

	if((info >> 6) & 0x01){ // x overflow = 1
    1b78:	e0bffd03 	ldbu	r2,-12(fp)
    1b7c:	1004d1ba 	srli	r2,r2,6
    1b80:	10803fcc 	andi	r2,r2,255
    1b84:	1080004c 	andi	r2,r2,1
    1b88:	10803fcc 	andi	r2,r2,255
    1b8c:	1005003a 	cmpeq	r2,r2,zero
    1b90:	1000151e 	bne	r2,zero,1be8 <setMouseBounds+0xe8>
		if((info >> 4) & 0x01)
    1b94:	e0bffd03 	ldbu	r2,-12(fp)
    1b98:	1004d13a 	srli	r2,r2,4
    1b9c:	10803fcc 	andi	r2,r2,255
    1ba0:	1080004c 	andi	r2,r2,1
    1ba4:	10803fcc 	andi	r2,r2,255
    1ba8:	1005003a 	cmpeq	r2,r2,zero
    1bac:	1000071e 	bne	r2,zero,1bcc <setMouseBounds+0xcc>
			x_axis_mouse += (-255 + x_move_s);
    1bb0:	d0a7e48b 	ldhu	r2,-24686(gp)
    1bb4:	1007883a 	mov	r3,r2
    1bb8:	e0bffc8b 	ldhu	r2,-14(fp)
    1bbc:	1885883a 	add	r2,r3,r2
    1bc0:	10bfc044 	addi	r2,r2,-255
    1bc4:	d0a7e48d 	sth	r2,-24686(gp)
    1bc8:	00000c06 	br	1bfc <setMouseBounds+0xfc>
		else
			x_axis_mouse += (+255 + x_move_s);
    1bcc:	d0a7e48b 	ldhu	r2,-24686(gp)
    1bd0:	1007883a 	mov	r3,r2
    1bd4:	e0bffc8b 	ldhu	r2,-14(fp)
    1bd8:	1885883a 	add	r2,r3,r2
    1bdc:	10803fc4 	addi	r2,r2,255
    1be0:	d0a7e48d 	sth	r2,-24686(gp)
    1be4:	00000506 	br	1bfc <setMouseBounds+0xfc>
	}
	else // x overflow = 0
		x_axis_mouse += x_move_s;
    1be8:	d0a7e48b 	ldhu	r2,-24686(gp)
    1bec:	1007883a 	mov	r3,r2
    1bf0:	e0bffc8b 	ldhu	r2,-14(fp)
    1bf4:	1885883a 	add	r2,r3,r2
    1bf8:	d0a7e48d 	sth	r2,-24686(gp)

	if((info >> 7) & 0x01){ // y overflow = 1
    1bfc:	e0bffd03 	ldbu	r2,-12(fp)
    1c00:	1004d1fa 	srli	r2,r2,7
    1c04:	10803fcc 	andi	r2,r2,255
    1c08:	1080004c 	andi	r2,r2,1
    1c0c:	10803fcc 	andi	r2,r2,255
    1c10:	1005003a 	cmpeq	r2,r2,zero
    1c14:	1000151e 	bne	r2,zero,1c6c <setMouseBounds+0x16c>
		if((info >> 5) & 0x01)
    1c18:	e0bffd03 	ldbu	r2,-12(fp)
    1c1c:	1004d17a 	srli	r2,r2,5
    1c20:	10803fcc 	andi	r2,r2,255
    1c24:	1080004c 	andi	r2,r2,1
    1c28:	10803fcc 	andi	r2,r2,255
    1c2c:	1005003a 	cmpeq	r2,r2,zero
    1c30:	1000071e 	bne	r2,zero,1c50 <setMouseBounds+0x150>
			y_axis_mouse -= (-255 + y_move_s);
    1c34:	d0a7e40b 	ldhu	r2,-24688(gp)
    1c38:	1007883a 	mov	r3,r2
    1c3c:	e0bffc0b 	ldhu	r2,-16(fp)
    1c40:	1885c83a 	sub	r2,r3,r2
    1c44:	10803fc4 	addi	r2,r2,255
    1c48:	d0a7e40d 	sth	r2,-24688(gp)
    1c4c:	00000c06 	br	1c80 <setMouseBounds+0x180>
		else
			y_axis_mouse -= (+255 + y_move_s);
    1c50:	d0a7e40b 	ldhu	r2,-24688(gp)
    1c54:	1007883a 	mov	r3,r2
    1c58:	e0bffc0b 	ldhu	r2,-16(fp)
    1c5c:	1885c83a 	sub	r2,r3,r2
    1c60:	10bfc044 	addi	r2,r2,-255
    1c64:	d0a7e40d 	sth	r2,-24688(gp)
    1c68:	00000506 	br	1c80 <setMouseBounds+0x180>
	}
	else // y overflow = 0
		y_axis_mouse -= y_move_s;
    1c6c:	d0a7e40b 	ldhu	r2,-24688(gp)
    1c70:	1007883a 	mov	r3,r2
    1c74:	e0bffc0b 	ldhu	r2,-16(fp)
    1c78:	1885c83a 	sub	r2,r3,r2
    1c7c:	d0a7e40d 	sth	r2,-24688(gp)
	// alt_printf(buf);
	// sprintf(buf, "y_axis_mouse: %d\n", (int) y_axis_mouse);
	// alt_printf(buf);
	//Debugging end

	if(x_axis_mouse < 2) x_axis_mouse = 2;
    1c80:	d0a7e48b 	ldhu	r2,-24686(gp)
    1c84:	10bfffcc 	andi	r2,r2,65535
    1c88:	10a0001c 	xori	r2,r2,32768
    1c8c:	10a00004 	addi	r2,r2,-32768
    1c90:	10800088 	cmpgei	r2,r2,2
    1c94:	1000021e 	bne	r2,zero,1ca0 <setMouseBounds+0x1a0>
    1c98:	00800084 	movi	r2,2
    1c9c:	d0a7e48d 	sth	r2,-24686(gp)
	if(x_axis_mouse > X_BOUND - 2) x_axis_mouse = X_BOUND - 2;
    1ca0:	d0a7e48b 	ldhu	r2,-24686(gp)
    1ca4:	10bfffcc 	andi	r2,r2,65535
    1ca8:	10a0001c 	xori	r2,r2,32768
    1cac:	10a00004 	addi	r2,r2,-32768
    1cb0:	10804f90 	cmplti	r2,r2,318
    1cb4:	1000021e 	bne	r2,zero,1cc0 <setMouseBounds+0x1c0>
    1cb8:	00804f44 	movi	r2,317
    1cbc:	d0a7e48d 	sth	r2,-24686(gp)
	if(y_axis_mouse < 2) y_axis_mouse = 2;
    1cc0:	d0a7e40b 	ldhu	r2,-24688(gp)
    1cc4:	10bfffcc 	andi	r2,r2,65535
    1cc8:	10a0001c 	xori	r2,r2,32768
    1ccc:	10a00004 	addi	r2,r2,-32768
    1cd0:	10800088 	cmpgei	r2,r2,2
    1cd4:	1000021e 	bne	r2,zero,1ce0 <setMouseBounds+0x1e0>
    1cd8:	00800084 	movi	r2,2
    1cdc:	d0a7e40d 	sth	r2,-24688(gp)
	if(y_axis_mouse > Y_BOUND - 2) y_axis_mouse = Y_BOUND - 2;
    1ce0:	d0a7e40b 	ldhu	r2,-24688(gp)
    1ce4:	10bfffcc 	andi	r2,r2,65535
    1ce8:	10a0001c 	xori	r2,r2,32768
    1cec:	10a00004 	addi	r2,r2,-32768
    1cf0:	10803b90 	cmplti	r2,r2,238
    1cf4:	1000021e 	bne	r2,zero,1d00 <setMouseBounds+0x200>
    1cf8:	00803b44 	movi	r2,237
    1cfc:	d0a7e40d 	sth	r2,-24688(gp)
}
    1d00:	e037883a 	mov	sp,fp
    1d04:	df000017 	ldw	fp,0(sp)
    1d08:	dec00104 	addi	sp,sp,4
    1d0c:	f800283a 	ret

00001d10 <Mouse_ISR>:


void Mouse_ISR (struct alt_up_dev *up_dev) {
    1d10:	defff304 	addi	sp,sp,-52
    1d14:	dfc00c15 	stw	ra,48(sp)
    1d18:	df000b15 	stw	fp,44(sp)
    1d1c:	df000b04 	addi	fp,sp,44
    1d20:	e13fff15 	stw	r4,-4(fp)
	unsigned char b1 = valid_byte1;
    1d24:	00800074 	movhi	r2,1
    1d28:	10834104 	addi	r2,r2,3332
    1d2c:	10800003 	ldbu	r2,0(r2)
    1d30:	e0bff785 	stb	r2,-34(fp)
	unsigned char b2 = valid_byte2;
    1d34:	00800074 	movhi	r2,1
    1d38:	10833d04 	addi	r2,r2,3316
    1d3c:	10800003 	ldbu	r2,0(r2)
    1d40:	e0bff745 	stb	r2,-35(fp)
	unsigned char b3 = valid_byte3;
    1d44:	00800074 	movhi	r2,1
    1d48:	10833bc4 	addi	r2,r2,3311
    1d4c:	10800003 	ldbu	r2,0(r2)
    1d50:	e0bff705 	stb	r2,-36(fp)
	volatile int *HEX3_HEX0_ptr = (int *) 0x10000020;
    1d54:	00840034 	movhi	r2,4096
    1d58:	10800804 	addi	r2,r2,32
    1d5c:	e0bff615 	stw	r2,-40(fp)
	volatile int *HEX7_HEX4_ptr = (int *) 0x10000030;
    1d60:	00840034 	movhi	r2,4096
    1d64:	10800c04 	addi	r2,r2,48
    1d68:	e0bff515 	stw	r2,-44(fp)
	unsigned char hex_segs[] = { 0, 0, 0, 0, 0, 0, 0, 0 };
    1d6c:	e03ff7c5 	stb	zero,-33(fp)
    1d70:	e03ff805 	stb	zero,-32(fp)
    1d74:	e03ff845 	stb	zero,-31(fp)
    1d78:	e03ff885 	stb	zero,-30(fp)
    1d7c:	e03ff8c5 	stb	zero,-29(fp)
    1d80:	e03ff905 	stb	zero,-28(fp)
    1d84:	e03ff945 	stb	zero,-27(fp)
    1d88:	e03ff985 	stb	zero,-26(fp)
	unsigned char button_mouse[3];

	unsigned char	seven_seg_decode_table[] = {	0x3F, 0x06, 0x5B, 0x4F, 0x66, 0x6D, 0x7D, 0x07, 
											0x7F, 0x67, 0x77, 0x7C, 0x39, 0x5E, 0x79, 0x71 };
    1d8c:	00800074 	movhi	r2,1
    1d90:	10b2f784 	addi	r2,r2,-13346
    1d94:	e13ffa84 	addi	r4,fp,-22
    1d98:	100b883a 	mov	r5,r2
    1d9c:	01800404 	movi	r6,16
    1da0:	0003ee00 	call	3ee0 <memcpy>


	alt_up_parallel_port_write_data (up_dev->red_LEDs_dev, 0); // Turn off LEDRs
    1da4:	e0bfff17 	ldw	r2,-4(fp)
    1da8:	10800217 	ldw	r2,8(r2)
    1dac:	10800a17 	ldw	r2,40(r2)
    1db0:	10000035 	stwio	zero,0(r2)
	
	if(b1 & 0x01){
    1db4:	e0bff783 	ldbu	r2,-34(fp)
    1db8:	1080004c 	andi	r2,r2,1
    1dbc:	10803fcc 	andi	r2,r2,255
    1dc0:	1005003a 	cmpeq	r2,r2,zero
    1dc4:	1000071e 	bne	r2,zero,1de4 <Mouse_ISR+0xd4>
		alt_up_parallel_port_write_data (up_dev->red_LEDs_dev, 0x1);/*LED0 -> Left btn*/
    1dc8:	e0bfff17 	ldw	r2,-4(fp)
    1dcc:	10800217 	ldw	r2,8(r2)
    1dd0:	10800a17 	ldw	r2,40(r2)
    1dd4:	1007883a 	mov	r3,r2
    1dd8:	00800044 	movi	r2,1
    1ddc:	18800035 	stwio	r2,0(r3)
    1de0:	00001506 	br	1e38 <Mouse_ISR+0x128>
	}
	else if(b1 & 0x02){
    1de4:	e0bff783 	ldbu	r2,-34(fp)
    1de8:	1080008c 	andi	r2,r2,2
    1dec:	1005003a 	cmpeq	r2,r2,zero
    1df0:	1000071e 	bne	r2,zero,1e10 <Mouse_ISR+0x100>
		alt_up_parallel_port_write_data (up_dev->red_LEDs_dev, 0x2);/*LED1 -> Right btn*/
    1df4:	e0bfff17 	ldw	r2,-4(fp)
    1df8:	10800217 	ldw	r2,8(r2)
    1dfc:	10800a17 	ldw	r2,40(r2)
    1e00:	1007883a 	mov	r3,r2
    1e04:	00800084 	movi	r2,2
    1e08:	18800035 	stwio	r2,0(r3)
    1e0c:	00000a06 	br	1e38 <Mouse_ISR+0x128>
	}
	else if(b1 & 0x04){
    1e10:	e0bff783 	ldbu	r2,-34(fp)
    1e14:	1080010c 	andi	r2,r2,4
    1e18:	1005003a 	cmpeq	r2,r2,zero
    1e1c:	1000061e 	bne	r2,zero,1e38 <Mouse_ISR+0x128>
		alt_up_parallel_port_write_data (up_dev->red_LEDs_dev, 0x4);/*LED2 -> Middle btn*/
    1e20:	e0bfff17 	ldw	r2,-4(fp)
    1e24:	10800217 	ldw	r2,8(r2)
    1e28:	10800a17 	ldw	r2,40(r2)
    1e2c:	1007883a 	mov	r3,r2
    1e30:	00800104 	movi	r2,4
    1e34:	18800035 	stwio	r2,0(r3)
	}

	hex_segs[0] = seven_seg_decode_table [b3 & 0x0F];
    1e38:	e0bff703 	ldbu	r2,-36(fp)
    1e3c:	10c003cc 	andi	r3,r2,15
    1e40:	e0bffa84 	addi	r2,fp,-22
    1e44:	10c5883a 	add	r2,r2,r3
    1e48:	10800003 	ldbu	r2,0(r2)
    1e4c:	e0bff7c5 	stb	r2,-33(fp)
	hex_segs[1] = seven_seg_decode_table [(b3 >> 4) & 0x0F];
    1e50:	e0bff703 	ldbu	r2,-36(fp)
    1e54:	1004d13a 	srli	r2,r2,4
    1e58:	10803fcc 	andi	r2,r2,255
    1e5c:	10c003cc 	andi	r3,r2,15
    1e60:	e0bffa84 	addi	r2,fp,-22
    1e64:	10c5883a 	add	r2,r2,r3
    1e68:	10800003 	ldbu	r2,0(r2)
    1e6c:	e0bff805 	stb	r2,-32(fp)
	hex_segs[2] = seven_seg_decode_table[b1 >> 7 & 0x01];
    1e70:	e0bff783 	ldbu	r2,-34(fp)
    1e74:	1004d1fa 	srli	r2,r2,7
    1e78:	10803fcc 	andi	r2,r2,255
    1e7c:	10c0004c 	andi	r3,r2,1
    1e80:	e0bffa84 	addi	r2,fp,-22
    1e84:	10c5883a 	add	r2,r2,r3
    1e88:	10800003 	ldbu	r2,0(r2)
    1e8c:	e0bff845 	stb	r2,-31(fp)
	hex_segs[3] = seven_seg_decode_table[b1 >> 5 & 0x01];
    1e90:	e0bff783 	ldbu	r2,-34(fp)
    1e94:	1004d17a 	srli	r2,r2,5
    1e98:	10803fcc 	andi	r2,r2,255
    1e9c:	10c0004c 	andi	r3,r2,1
    1ea0:	e0bffa84 	addi	r2,fp,-22
    1ea4:	10c5883a 	add	r2,r2,r3
    1ea8:	10800003 	ldbu	r2,0(r2)
    1eac:	e0bff885 	stb	r2,-30(fp)

	hex_segs[4] = seven_seg_decode_table [b2 & 0x0F];
    1eb0:	e0bff743 	ldbu	r2,-35(fp)
    1eb4:	10c003cc 	andi	r3,r2,15
    1eb8:	e0bffa84 	addi	r2,fp,-22
    1ebc:	10c5883a 	add	r2,r2,r3
    1ec0:	10800003 	ldbu	r2,0(r2)
    1ec4:	e0bff8c5 	stb	r2,-29(fp)
	hex_segs[5] = seven_seg_decode_table [(b2 >> 4) & 0x0F];
    1ec8:	e0bff743 	ldbu	r2,-35(fp)
    1ecc:	1004d13a 	srli	r2,r2,4
    1ed0:	10803fcc 	andi	r2,r2,255
    1ed4:	10c003cc 	andi	r3,r2,15
    1ed8:	e0bffa84 	addi	r2,fp,-22
    1edc:	10c5883a 	add	r2,r2,r3
    1ee0:	10800003 	ldbu	r2,0(r2)
    1ee4:	e0bff905 	stb	r2,-28(fp)
	hex_segs[6] = seven_seg_decode_table[b1 >> 6 & 0x01];
    1ee8:	e0bff783 	ldbu	r2,-34(fp)
    1eec:	1004d1ba 	srli	r2,r2,6
    1ef0:	10803fcc 	andi	r2,r2,255
    1ef4:	10c0004c 	andi	r3,r2,1
    1ef8:	e0bffa84 	addi	r2,fp,-22
    1efc:	10c5883a 	add	r2,r2,r3
    1f00:	10800003 	ldbu	r2,0(r2)
    1f04:	e0bff945 	stb	r2,-27(fp)
	hex_segs[7] = seven_seg_decode_table[b1 >> 4 & 0x01];
    1f08:	e0bff783 	ldbu	r2,-34(fp)
    1f0c:	1004d13a 	srli	r2,r2,4
    1f10:	10803fcc 	andi	r2,r2,255
    1f14:	10c0004c 	andi	r3,r2,1
    1f18:	e0bffa84 	addi	r2,fp,-22
    1f1c:	10c5883a 	add	r2,r2,r3
    1f20:	10800003 	ldbu	r2,0(r2)
    1f24:	e0bff985 	stb	r2,-26(fp)

	*(HEX3_HEX0_ptr) = *(int *) (hex_segs);
    1f28:	e0bff7c4 	addi	r2,fp,-33
    1f2c:	10c00017 	ldw	r3,0(r2)
    1f30:	e0bff617 	ldw	r2,-40(fp)
    1f34:	10c00015 	stw	r3,0(r2)
	*(HEX7_HEX4_ptr) = *(int *) (hex_segs+4);
    1f38:	e0bff7c4 	addi	r2,fp,-33
    1f3c:	10800104 	addi	r2,r2,4
    1f40:	10c00017 	ldw	r3,0(r2)
    1f44:	e0bff517 	ldw	r2,-44(fp)
    1f48:	10c00015 	stw	r3,0(r2)

	setMouseBounds(b1, b2, b3);
    1f4c:	e13ff783 	ldbu	r4,-34(fp)
    1f50:	e17ff743 	ldbu	r5,-35(fp)
    1f54:	e1bff703 	ldbu	r6,-36(fp)
    1f58:	0001b000 	call	1b00 <setMouseBounds>
}
    1f5c:	e037883a 	mov	sp,fp
    1f60:	dfc00117 	ldw	ra,4(sp)
    1f64:	df000017 	ldw	fp,0(sp)
    1f68:	dec00204 	addi	sp,sp,8
    1f6c:	f800283a 	ret

00001f70 <run_command>:
// 		mem[i] = 0;
// 	}
// }


void run_command(struct alt_up_dev *up_dev, alt_up_pixel_buffer_dma_dev *pixel_buffer_dev) {
    1f70:	defffa04 	addi	sp,sp,-24
    1f74:	dfc00515 	stw	ra,20(sp)
    1f78:	df000415 	stw	fp,16(sp)
    1f7c:	df000404 	addi	fp,sp,16
    1f80:	e13ffe15 	stw	r4,-8(fp)
    1f84:	e17fff15 	stw	r5,-4(fp)
	int num_read;
	int num_written;
	if(command == 0){ //Record
    1f88:	00800074 	movhi	r2,1
    1f8c:	10833c84 	addi	r2,r2,3314
    1f90:	10800003 	ldbu	r2,0(r2)
    1f94:	10803fcc 	andi	r2,r2,255
    1f98:	1004c03a 	cmpne	r2,r2,zero
    1f9c:	1000091e 	bne	r2,zero,1fc4 <run_command+0x54>
		// alt_u32 fr;
		// fr = alt_timestamp_freq();
		// reset the buffer index for recording
		buf_index_record = 0;
    1fa0:	00800074 	movhi	r2,1
    1fa4:	10834004 	addi	r2,r2,3328
    1fa8:	10000015 	stw	zero,0(r2)
		// clear audio FIFOs
		alt_up_audio_reset_audio_core (up_dev->audio_dev);
    1fac:	e0bffe17 	ldw	r2,-8(fp)
    1fb0:	11000517 	ldw	r4,20(r2)
    1fb4:	00057c80 	call	57c8 <alt_up_audio_reset_audio_core>
		// enable audio-in interrupts
		alt_up_audio_enable_read_interrupt (up_dev->audio_dev);
    1fb8:	e0bffe17 	ldw	r2,-8(fp)
    1fbc:	11000517 	ldw	r4,20(r2)
    1fc0:	00056180 	call	5618 <alt_up_audio_enable_read_interrupt>
		// take_mean();
		// float t_stop = (float) alt_timestamp() / (float) fr;
		// printf("t = %f\n", t_stop - t_start);

	}
	if(command == 1){ //Play
    1fc4:	00800074 	movhi	r2,1
    1fc8:	10833c84 	addi	r2,r2,3314
    1fcc:	10800003 	ldbu	r2,0(r2)
    1fd0:	10803fcc 	andi	r2,r2,255
    1fd4:	10800058 	cmpnei	r2,r2,1
    1fd8:	10000d1e 	bne	r2,zero,2010 <run_command+0xa0>
		// reset counter to start playback
		buf_index_play = 0;
    1fdc:	00800074 	movhi	r2,1
    1fe0:	10833f04 	addi	r2,r2,3324
    1fe4:	10000015 	stw	zero,0(r2)
		// clear audio FIFOs
		alt_up_audio_reset_audio_core (up_dev->audio_dev);
    1fe8:	e0bffe17 	ldw	r2,-8(fp)
    1fec:	11000517 	ldw	r4,20(r2)
    1ff0:	00057c80 	call	57c8 <alt_up_audio_reset_audio_core>
		// enable audio-out interrupts
		alt_up_audio_enable_write_interrupt (up_dev->audio_dev);
    1ff4:	e0bffe17 	ldw	r2,-8(fp)
    1ff8:	11000517 	ldw	r4,20(r2)
    1ffc:	00056b40 	call	56b4 <alt_up_audio_enable_write_interrupt>
		flag_denoise = 0;
    2000:	00800074 	movhi	r2,1
    2004:	10833c44 	addi	r2,r2,3313
    2008:	10000005 	stb	zero,0(r2)
		all_drawn = 0;
    200c:	d027e20d 	sth	zero,-24696(gp)
	}
	if(command == 2){ //Denoise
    2010:	00800074 	movhi	r2,1
    2014:	10833c84 	addi	r2,r2,3314
    2018:	10800003 	ldbu	r2,0(r2)
    201c:	10803fcc 	andi	r2,r2,255
    2020:	10800098 	cmpnei	r2,r2,2
    2024:	10000d1e 	bne	r2,zero,205c <run_command+0xec>
		// reset counter to start playback
		buf_index_play = 0;
    2028:	00800074 	movhi	r2,1
    202c:	10833f04 	addi	r2,r2,3324
    2030:	10000015 	stw	zero,0(r2)
		// clear audio FIFOs
		alt_up_audio_reset_audio_core (up_dev->audio_dev);
    2034:	e0bffe17 	ldw	r2,-8(fp)
    2038:	11000517 	ldw	r4,20(r2)
    203c:	00057c80 	call	57c8 <alt_up_audio_reset_audio_core>
		// enable audio-out interrupts
		alt_up_audio_enable_write_interrupt (up_dev->audio_dev);
    2040:	e0bffe17 	ldw	r2,-8(fp)
    2044:	11000517 	ldw	r4,20(r2)
    2048:	00056b40 	call	56b4 <alt_up_audio_enable_write_interrupt>
		flag_denoise = 1;
    204c:	00c00074 	movhi	r3,1
    2050:	18c33c44 	addi	r3,r3,3313
    2054:	00800044 	movi	r2,1
    2058:	18800005 	stb	r2,0(r3)
	}
}
    205c:	e037883a 	mov	sp,fp
    2060:	dfc00117 	ldw	ra,4(sp)
    2064:	df000017 	ldw	fp,0(sp)
    2068:	dec00204 	addi	sp,sp,8
    206c:	f800283a 	ret

00002070 <command_det>:

unsigned char command_det(unsigned char buttons_stat) {
    2070:	defffd04 	addi	sp,sp,-12
    2074:	df000215 	stw	fp,8(sp)
    2078:	df000204 	addi	fp,sp,8
    207c:	e13ffe05 	stb	r4,-8(fp)
	if((buttons_stat >> 0) % 2){
    2080:	e0bffe03 	ldbu	r2,-8(fp)
    2084:	1080004c 	andi	r2,r2,1
    2088:	10803fcc 	andi	r2,r2,255
    208c:	1005003a 	cmpeq	r2,r2,zero
    2090:	1000501e 	bne	r2,zero,21d4 <command_det+0x164>
		if(x_axis_mouse >= 35 && x_axis_mouse <= 100 &&
    2094:	d0a7e48b 	ldhu	r2,-24686(gp)
    2098:	10bfffcc 	andi	r2,r2,65535
    209c:	10a0001c 	xori	r2,r2,32768
    20a0:	10a00004 	addi	r2,r2,-32768
    20a4:	108008d0 	cmplti	r2,r2,35
    20a8:	1000141e 	bne	r2,zero,20fc <command_det+0x8c>
    20ac:	d0a7e48b 	ldhu	r2,-24686(gp)
    20b0:	10bfffcc 	andi	r2,r2,65535
    20b4:	10a0001c 	xori	r2,r2,32768
    20b8:	10a00004 	addi	r2,r2,-32768
    20bc:	10801948 	cmpgei	r2,r2,101
    20c0:	10000e1e 	bne	r2,zero,20fc <command_det+0x8c>
    20c4:	d0a7e40b 	ldhu	r2,-24688(gp)
    20c8:	10bfffcc 	andi	r2,r2,65535
    20cc:	10a0001c 	xori	r2,r2,32768
    20d0:	10a00004 	addi	r2,r2,-32768
    20d4:	10800510 	cmplti	r2,r2,20
    20d8:	1000081e 	bne	r2,zero,20fc <command_det+0x8c>
    20dc:	d0a7e40b 	ldhu	r2,-24688(gp)
    20e0:	10bfffcc 	andi	r2,r2,65535
    20e4:	10a0001c 	xori	r2,r2,32768
    20e8:	10a00004 	addi	r2,r2,-32768
    20ec:	10801048 	cmpgei	r2,r2,65
    20f0:	1000021e 	bne	r2,zero,20fc <command_det+0x8c>
		   y_axis_mouse >= 20 && y_axis_mouse <= 64)
			return 0;
    20f4:	e03fff15 	stw	zero,-4(fp)
    20f8:	00003806 	br	21dc <command_det+0x16c>
		else if(x_axis_mouse >= 125 && x_axis_mouse <= 190 &&
    20fc:	d0a7e48b 	ldhu	r2,-24686(gp)
    2100:	10bfffcc 	andi	r2,r2,65535
    2104:	10a0001c 	xori	r2,r2,32768
    2108:	10a00004 	addi	r2,r2,-32768
    210c:	10801f50 	cmplti	r2,r2,125
    2110:	1000151e 	bne	r2,zero,2168 <command_det+0xf8>
    2114:	d0a7e48b 	ldhu	r2,-24686(gp)
    2118:	10bfffcc 	andi	r2,r2,65535
    211c:	10a0001c 	xori	r2,r2,32768
    2120:	10a00004 	addi	r2,r2,-32768
    2124:	10802fc8 	cmpgei	r2,r2,191
    2128:	10000f1e 	bne	r2,zero,2168 <command_det+0xf8>
    212c:	d0a7e40b 	ldhu	r2,-24688(gp)
    2130:	10bfffcc 	andi	r2,r2,65535
    2134:	10a0001c 	xori	r2,r2,32768
    2138:	10a00004 	addi	r2,r2,-32768
    213c:	10800510 	cmplti	r2,r2,20
    2140:	1000091e 	bne	r2,zero,2168 <command_det+0xf8>
    2144:	d0a7e40b 	ldhu	r2,-24688(gp)
    2148:	10bfffcc 	andi	r2,r2,65535
    214c:	10a0001c 	xori	r2,r2,32768
    2150:	10a00004 	addi	r2,r2,-32768
    2154:	10801048 	cmpgei	r2,r2,65
    2158:	1000031e 	bne	r2,zero,2168 <command_det+0xf8>
				y_axis_mouse >= 20 && y_axis_mouse <= 64)
			return 1;
    215c:	00800044 	movi	r2,1
    2160:	e0bfff15 	stw	r2,-4(fp)
    2164:	00001d06 	br	21dc <command_det+0x16c>
		else if(x_axis_mouse >= 215 && x_axis_mouse <= 280 &&
    2168:	d0a7e48b 	ldhu	r2,-24686(gp)
    216c:	10bfffcc 	andi	r2,r2,65535
    2170:	10a0001c 	xori	r2,r2,32768
    2174:	10a00004 	addi	r2,r2,-32768
    2178:	108035d0 	cmplti	r2,r2,215
    217c:	1000151e 	bne	r2,zero,21d4 <command_det+0x164>
    2180:	d0a7e48b 	ldhu	r2,-24686(gp)
    2184:	10bfffcc 	andi	r2,r2,65535
    2188:	10a0001c 	xori	r2,r2,32768
    218c:	10a00004 	addi	r2,r2,-32768
    2190:	10804648 	cmpgei	r2,r2,281
    2194:	10000f1e 	bne	r2,zero,21d4 <command_det+0x164>
    2198:	d0a7e40b 	ldhu	r2,-24688(gp)
    219c:	10bfffcc 	andi	r2,r2,65535
    21a0:	10a0001c 	xori	r2,r2,32768
    21a4:	10a00004 	addi	r2,r2,-32768
    21a8:	10800510 	cmplti	r2,r2,20
    21ac:	1000091e 	bne	r2,zero,21d4 <command_det+0x164>
    21b0:	d0a7e40b 	ldhu	r2,-24688(gp)
    21b4:	10bfffcc 	andi	r2,r2,65535
    21b8:	10a0001c 	xori	r2,r2,32768
    21bc:	10a00004 	addi	r2,r2,-32768
    21c0:	10801048 	cmpgei	r2,r2,65
    21c4:	1000031e 	bne	r2,zero,21d4 <command_det+0x164>
				y_axis_mouse >= 20 && y_axis_mouse <= 64)
			return 2;
    21c8:	00800084 	movi	r2,2
    21cc:	e0bfff15 	stw	r2,-4(fp)
    21d0:	00000206 	br	21dc <command_det+0x16c>
	}
	return -1;
    21d4:	00803fc4 	movi	r2,255
    21d8:	e0bfff15 	stw	r2,-4(fp)
    21dc:	e0bfff17 	ldw	r2,-4(fp)
}
    21e0:	e037883a 	mov	sp,fp
    21e4:	df000017 	ldw	fp,0(sp)
    21e8:	dec00104 	addi	sp,sp,4
    21ec:	f800283a 	ret

000021f0 <pushbutton_ISR>:
 *                                                                          
 * This ISR checks which KEY has been pressed. If KEY1, then it enables audio-in
 * interrupts (recording). If KEY2, it enables audio-out interrupts (playback).
****************************************************************************************/
void pushbutton_ISR(struct alt_up_dev *up_dev, unsigned int id)
{
    21f0:	defffa04 	addi	sp,sp,-24
    21f4:	dfc00515 	stw	ra,20(sp)
    21f8:	df000415 	stw	fp,16(sp)
    21fc:	df000404 	addi	fp,sp,16
    2200:	e13ffe15 	stw	r4,-8(fp)
    2204:	e17fff15 	stw	r5,-4(fp)
	alt_up_audio_dev *audio_dev;

	audio_dev = up_dev->audio_dev;
    2208:	e0bffe17 	ldw	r2,-8(fp)
    220c:	10800517 	ldw	r2,20(r2)
    2210:	e0bffd15 	stw	r2,-12(fp)
	
	int KEY_value;

	/* read the pushbutton interrupt register */
	KEY_value = alt_up_parallel_port_read_edge_capture (up_dev->KEY_dev);
    2214:	e0bffe17 	ldw	r2,-8(fp)
    2218:	10800017 	ldw	r2,0(r2)
    221c:	10800a17 	ldw	r2,40(r2)
    2220:	10800304 	addi	r2,r2,12
    2224:	10800037 	ldwio	r2,0(r2)
    2228:	e0bffc15 	stw	r2,-16(fp)
	alt_up_parallel_port_clear_edge_capture (up_dev->KEY_dev);	// Clear the interrupt
    222c:	e0bffe17 	ldw	r2,-8(fp)
    2230:	10800017 	ldw	r2,0(r2)
    2234:	10800a17 	ldw	r2,40(r2)
    2238:	10800304 	addi	r2,r2,12
    223c:	10000035 	stwio	zero,0(r2)

	if (KEY_value == 0x2)										// check KEY1
    2240:	e0bffc17 	ldw	r2,-16(fp)
    2244:	10800098 	cmpnei	r2,r2,2
    2248:	1000081e 	bne	r2,zero,226c <pushbutton_ISR+0x7c>
	{
		// reset the buffer index for recording
		buf_index_record = 0;
    224c:	00800074 	movhi	r2,1
    2250:	10834004 	addi	r2,r2,3328
    2254:	10000015 	stw	zero,0(r2)
		// clear audio FIFOs
		alt_up_audio_reset_audio_core (audio_dev);
    2258:	e13ffd17 	ldw	r4,-12(fp)
    225c:	00057c80 	call	57c8 <alt_up_audio_reset_audio_core>
		// enable audio-in interrupts
		alt_up_audio_enable_read_interrupt (audio_dev);
    2260:	e13ffd17 	ldw	r4,-12(fp)
    2264:	00056180 	call	5618 <alt_up_audio_enable_read_interrupt>
    2268:	00000a06 	br	2294 <pushbutton_ISR+0xa4>
	}
	else if (KEY_value == 0x4)									// check KEY2
    226c:	e0bffc17 	ldw	r2,-16(fp)
    2270:	10800118 	cmpnei	r2,r2,4
    2274:	1000071e 	bne	r2,zero,2294 <pushbutton_ISR+0xa4>
	{
		// reset counter to start playback
		buf_index_play = 0;
    2278:	00800074 	movhi	r2,1
    227c:	10833f04 	addi	r2,r2,3324
    2280:	10000015 	stw	zero,0(r2)
		// clear audio FIFOs
		alt_up_audio_reset_audio_core (audio_dev);
    2284:	e13ffd17 	ldw	r4,-12(fp)
    2288:	00057c80 	call	57c8 <alt_up_audio_reset_audio_core>
		// enable audio-out interrupts
		alt_up_audio_enable_write_interrupt (audio_dev);
    228c:	e13ffd17 	ldw	r4,-12(fp)
    2290:	00056b40 	call	56b4 <alt_up_audio_enable_write_interrupt>
	}
	return;
}
    2294:	e037883a 	mov	sp,fp
    2298:	dfc00117 	ldw	ra,4(sp)
    229c:	df000017 	ldw	fp,0(sp)
    22a0:	dec00204 	addi	sp,sp,8
    22a4:	f800283a 	ret

000022a8 <__muldi3>:
    22a8:	2011883a 	mov	r8,r4
    22ac:	427fffcc 	andi	r9,r8,65535
    22b0:	4018d43a 	srli	r12,r8,16
    22b4:	32bfffcc 	andi	r10,r6,65535
    22b8:	3016d43a 	srli	r11,r6,16
    22bc:	4a85383a 	mul	r2,r9,r10
    22c0:	6295383a 	mul	r10,r12,r10
    22c4:	4ad3383a 	mul	r9,r9,r11
    22c8:	113fffcc 	andi	r4,r2,65535
    22cc:	1004d43a 	srli	r2,r2,16
    22d0:	4a93883a 	add	r9,r9,r10
    22d4:	3807883a 	mov	r3,r7
    22d8:	1245883a 	add	r2,r2,r9
    22dc:	280f883a 	mov	r7,r5
    22e0:	180b883a 	mov	r5,r3
    22e4:	1006943a 	slli	r3,r2,16
    22e8:	defffd04 	addi	sp,sp,-12
    22ec:	dc800215 	stw	r18,8(sp)
    22f0:	1907883a 	add	r3,r3,r4
    22f4:	dc400115 	stw	r17,4(sp)
    22f8:	dc000015 	stw	r16,0(sp)
    22fc:	4165383a 	mul	r18,r8,r5
    2300:	31e3383a 	mul	r17,r6,r7
    2304:	1012d43a 	srli	r9,r2,16
    2308:	62d9383a 	mul	r12,r12,r11
    230c:	181f883a 	mov	r15,r3
    2310:	1280022e 	bgeu	r2,r10,231c <__muldi3+0x74>
    2314:	00800074 	movhi	r2,1
    2318:	6099883a 	add	r12,r12,r2
    231c:	624d883a 	add	r6,r12,r9
    2320:	9187883a 	add	r3,r18,r6
    2324:	88c7883a 	add	r3,r17,r3
    2328:	7805883a 	mov	r2,r15
    232c:	dc800217 	ldw	r18,8(sp)
    2330:	dc400117 	ldw	r17,4(sp)
    2334:	dc000017 	ldw	r16,0(sp)
    2338:	dec00304 	addi	sp,sp,12
    233c:	f800283a 	ret

00002340 <__fixunsdfsi>:
    2340:	defffb04 	addi	sp,sp,-20
    2344:	dc400115 	stw	r17,4(sp)
    2348:	dc000015 	stw	r16,0(sp)
    234c:	04507834 	movhi	r17,16864
    2350:	0021883a 	mov	r16,zero
    2354:	800d883a 	mov	r6,r16
    2358:	880f883a 	mov	r7,r17
    235c:	dcc00315 	stw	r19,12(sp)
    2360:	dc800215 	stw	r18,8(sp)
    2364:	2827883a 	mov	r19,r5
    2368:	2025883a 	mov	r18,r4
    236c:	dfc00415 	stw	ra,16(sp)
    2370:	00034400 	call	3440 <__gedf2>
    2374:	000d883a 	mov	r6,zero
    2378:	880f883a 	mov	r7,r17
    237c:	980b883a 	mov	r5,r19
    2380:	9009883a 	mov	r4,r18
    2384:	10000d16 	blt	r2,zero,23bc <__fixunsdfsi+0x7c>
    2388:	0002f880 	call	2f88 <__subdf3>
    238c:	180b883a 	mov	r5,r3
    2390:	1009883a 	mov	r4,r2
    2394:	00034c80 	call	34c8 <__fixdfsi>
    2398:	00e00034 	movhi	r3,32768
    239c:	10c5883a 	add	r2,r2,r3
    23a0:	dfc00417 	ldw	ra,16(sp)
    23a4:	dcc00317 	ldw	r19,12(sp)
    23a8:	dc800217 	ldw	r18,8(sp)
    23ac:	dc400117 	ldw	r17,4(sp)
    23b0:	dc000017 	ldw	r16,0(sp)
    23b4:	dec00504 	addi	sp,sp,20
    23b8:	f800283a 	ret
    23bc:	980b883a 	mov	r5,r19
    23c0:	9009883a 	mov	r4,r18
    23c4:	00034c80 	call	34c8 <__fixdfsi>
    23c8:	dfc00417 	ldw	ra,16(sp)
    23cc:	dcc00317 	ldw	r19,12(sp)
    23d0:	dc800217 	ldw	r18,8(sp)
    23d4:	dc400117 	ldw	r17,4(sp)
    23d8:	dc000017 	ldw	r16,0(sp)
    23dc:	dec00504 	addi	sp,sp,20
    23e0:	f800283a 	ret

000023e4 <__divdi3>:
    23e4:	deffef04 	addi	sp,sp,-68
    23e8:	2005883a 	mov	r2,r4
    23ec:	2807883a 	mov	r3,r5
    23f0:	dfc01015 	stw	ra,64(sp)
    23f4:	df000f15 	stw	fp,60(sp)
    23f8:	ddc00e15 	stw	r23,56(sp)
    23fc:	dd800d15 	stw	r22,52(sp)
    2400:	dd400c15 	stw	r21,48(sp)
    2404:	dd000b15 	stw	r20,44(sp)
    2408:	dcc00a15 	stw	r19,40(sp)
    240c:	dc800915 	stw	r18,36(sp)
    2410:	dc400815 	stw	r17,32(sp)
    2414:	dc000715 	stw	r16,28(sp)
    2418:	1019883a 	mov	r12,r2
    241c:	181b883a 	mov	r13,r3
    2420:	3015883a 	mov	r10,r6
    2424:	3817883a 	mov	r11,r7
    2428:	1800ba16 	blt	r3,zero,2714 <__divdi3+0x330>
    242c:	d8000615 	stw	zero,24(sp)
    2430:	5800ad16 	blt	r11,zero,26e8 <__divdi3+0x304>
    2434:	5021883a 	mov	r16,r10
    2438:	602f883a 	mov	r23,r12
    243c:	6829883a 	mov	r20,r13
    2440:	58003b1e 	bne	r11,zero,2530 <__divdi3+0x14c>
    2444:	6a805836 	bltu	r13,r10,25a8 <__divdi3+0x1c4>
    2448:	5000ce26 	beq	r10,zero,2784 <__divdi3+0x3a0>
    244c:	00bfffd4 	movui	r2,65535
    2450:	1400ba36 	bltu	r2,r16,273c <__divdi3+0x358>
    2454:	00803fc4 	movi	r2,255
    2458:	14015f36 	bltu	r2,r16,29d8 <__divdi3+0x5f4>
    245c:	000b883a 	mov	r5,zero
    2460:	0005883a 	mov	r2,zero
    2464:	8084d83a 	srl	r2,r16,r2
    2468:	01000074 	movhi	r4,1
    246c:	21330104 	addi	r4,r4,-13308
    2470:	01800804 	movi	r6,32
    2474:	1105883a 	add	r2,r2,r4
    2478:	10c00003 	ldbu	r3,0(r2)
    247c:	28c7883a 	add	r3,r5,r3
    2480:	30edc83a 	sub	r22,r6,r3
    2484:	b001101e 	bne	r22,zero,28c8 <__divdi3+0x4e4>
    2488:	802ad43a 	srli	r21,r16,16
    248c:	01000044 	movi	r4,1
    2490:	a423c83a 	sub	r17,r20,r16
    2494:	873fffcc 	andi	fp,r16,65535
    2498:	d9000315 	stw	r4,12(sp)
    249c:	8809883a 	mov	r4,r17
    24a0:	a80b883a 	mov	r5,r21
    24a4:	00037140 	call	3714 <__udivsi3>
    24a8:	8809883a 	mov	r4,r17
    24ac:	a80b883a 	mov	r5,r21
    24b0:	102d883a 	mov	r22,r2
    24b4:	000371c0 	call	371c <__umodsi3>
    24b8:	1004943a 	slli	r2,r2,16
    24bc:	b806d43a 	srli	r3,r23,16
    24c0:	e5a3383a 	mul	r17,fp,r22
    24c4:	10c4b03a 	or	r2,r2,r3
    24c8:	1440042e 	bgeu	r2,r17,24dc <__divdi3+0xf8>
    24cc:	1405883a 	add	r2,r2,r16
    24d0:	b5bfffc4 	addi	r22,r22,-1
    24d4:	14000136 	bltu	r2,r16,24dc <__divdi3+0xf8>
    24d8:	14415f36 	bltu	r2,r17,2a58 <__divdi3+0x674>
    24dc:	1463c83a 	sub	r17,r2,r17
    24e0:	8809883a 	mov	r4,r17
    24e4:	a80b883a 	mov	r5,r21
    24e8:	00037140 	call	3714 <__udivsi3>
    24ec:	8809883a 	mov	r4,r17
    24f0:	a80b883a 	mov	r5,r21
    24f4:	1029883a 	mov	r20,r2
    24f8:	000371c0 	call	371c <__umodsi3>
    24fc:	1004943a 	slli	r2,r2,16
    2500:	e509383a 	mul	r4,fp,r20
    2504:	b8ffffcc 	andi	r3,r23,65535
    2508:	10c4b03a 	or	r2,r2,r3
    250c:	1100042e 	bgeu	r2,r4,2520 <__divdi3+0x13c>
    2510:	8085883a 	add	r2,r16,r2
    2514:	a53fffc4 	addi	r20,r20,-1
    2518:	14000136 	bltu	r2,r16,2520 <__divdi3+0x13c>
    251c:	11014736 	bltu	r2,r4,2a3c <__divdi3+0x658>
    2520:	b004943a 	slli	r2,r22,16
    2524:	d8c00317 	ldw	r3,12(sp)
    2528:	a084b03a 	or	r2,r20,r2
    252c:	00000406 	br	2540 <__divdi3+0x15c>
    2530:	5811883a 	mov	r8,r11
    2534:	6ac0582e 	bgeu	r13,r11,2698 <__divdi3+0x2b4>
    2538:	0005883a 	mov	r2,zero
    253c:	0007883a 	mov	r3,zero
    2540:	1025883a 	mov	r18,r2
    2544:	100d883a 	mov	r6,r2
    2548:	d8800617 	ldw	r2,24(sp)
    254c:	180f883a 	mov	r7,r3
    2550:	10000726 	beq	r2,zero,2570 <__divdi3+0x18c>
    2554:	0009883a 	mov	r4,zero
    2558:	2485c83a 	sub	r2,r4,r18
    255c:	2089803a 	cmpltu	r4,r4,r2
    2560:	00c7c83a 	sub	r3,zero,r3
    2564:	1909c83a 	sub	r4,r3,r4
    2568:	100d883a 	mov	r6,r2
    256c:	200f883a 	mov	r7,r4
    2570:	3005883a 	mov	r2,r6
    2574:	3807883a 	mov	r3,r7
    2578:	dfc01017 	ldw	ra,64(sp)
    257c:	df000f17 	ldw	fp,60(sp)
    2580:	ddc00e17 	ldw	r23,56(sp)
    2584:	dd800d17 	ldw	r22,52(sp)
    2588:	dd400c17 	ldw	r21,48(sp)
    258c:	dd000b17 	ldw	r20,44(sp)
    2590:	dcc00a17 	ldw	r19,40(sp)
    2594:	dc800917 	ldw	r18,36(sp)
    2598:	dc400817 	ldw	r17,32(sp)
    259c:	dc000717 	ldw	r16,28(sp)
    25a0:	dec01104 	addi	sp,sp,68
    25a4:	f800283a 	ret
    25a8:	00bfffd4 	movui	r2,65535
    25ac:	12806f36 	bltu	r2,r10,276c <__divdi3+0x388>
    25b0:	00803fc4 	movi	r2,255
    25b4:	12810236 	bltu	r2,r10,29c0 <__divdi3+0x5dc>
    25b8:	000b883a 	mov	r5,zero
    25bc:	0005883a 	mov	r2,zero
    25c0:	8084d83a 	srl	r2,r16,r2
    25c4:	01000074 	movhi	r4,1
    25c8:	21330104 	addi	r4,r4,-13308
    25cc:	01800804 	movi	r6,32
    25d0:	1105883a 	add	r2,r2,r4
    25d4:	10c00003 	ldbu	r3,0(r2)
    25d8:	28c7883a 	add	r3,r5,r3
    25dc:	30d1c83a 	sub	r8,r6,r3
    25e0:	40000626 	beq	r8,zero,25fc <__divdi3+0x218>
    25e4:	3205c83a 	sub	r2,r6,r8
    25e8:	b884d83a 	srl	r2,r23,r2
    25ec:	a206983a 	sll	r3,r20,r8
    25f0:	ba2e983a 	sll	r23,r23,r8
    25f4:	8220983a 	sll	r16,r16,r8
    25f8:	18a8b03a 	or	r20,r3,r2
    25fc:	802ad43a 	srli	r21,r16,16
    2600:	a009883a 	mov	r4,r20
    2604:	873fffcc 	andi	fp,r16,65535
    2608:	a80b883a 	mov	r5,r21
    260c:	00037140 	call	3714 <__udivsi3>
    2610:	a009883a 	mov	r4,r20
    2614:	a80b883a 	mov	r5,r21
    2618:	102d883a 	mov	r22,r2
    261c:	000371c0 	call	371c <__umodsi3>
    2620:	1004943a 	slli	r2,r2,16
    2624:	b806d43a 	srli	r3,r23,16
    2628:	e5a3383a 	mul	r17,fp,r22
    262c:	10c4b03a 	or	r2,r2,r3
    2630:	1440042e 	bgeu	r2,r17,2644 <__divdi3+0x260>
    2634:	1405883a 	add	r2,r2,r16
    2638:	b5bfffc4 	addi	r22,r22,-1
    263c:	14000136 	bltu	r2,r16,2644 <__divdi3+0x260>
    2640:	14410236 	bltu	r2,r17,2a4c <__divdi3+0x668>
    2644:	1463c83a 	sub	r17,r2,r17
    2648:	8809883a 	mov	r4,r17
    264c:	a80b883a 	mov	r5,r21
    2650:	00037140 	call	3714 <__udivsi3>
    2654:	8809883a 	mov	r4,r17
    2658:	a80b883a 	mov	r5,r21
    265c:	1029883a 	mov	r20,r2
    2660:	000371c0 	call	371c <__umodsi3>
    2664:	1004943a 	slli	r2,r2,16
    2668:	e509383a 	mul	r4,fp,r20
    266c:	b8ffffcc 	andi	r3,r23,65535
    2670:	10c4b03a 	or	r2,r2,r3
    2674:	1100042e 	bgeu	r2,r4,2688 <__divdi3+0x2a4>
    2678:	8085883a 	add	r2,r16,r2
    267c:	a53fffc4 	addi	r20,r20,-1
    2680:	14000136 	bltu	r2,r16,2688 <__divdi3+0x2a4>
    2684:	1100ef36 	bltu	r2,r4,2a44 <__divdi3+0x660>
    2688:	b004943a 	slli	r2,r22,16
    268c:	0007883a 	mov	r3,zero
    2690:	a084b03a 	or	r2,r20,r2
    2694:	003faa06 	br	2540 <__divdi3+0x15c>
    2698:	00bfffd4 	movui	r2,65535
    269c:	12c02d36 	bltu	r2,r11,2754 <__divdi3+0x370>
    26a0:	00803fc4 	movi	r2,255
    26a4:	12c0cf36 	bltu	r2,r11,29e4 <__divdi3+0x600>
    26a8:	000b883a 	mov	r5,zero
    26ac:	0005883a 	mov	r2,zero
    26b0:	4084d83a 	srl	r2,r8,r2
    26b4:	01000074 	movhi	r4,1
    26b8:	21330104 	addi	r4,r4,-13308
    26bc:	01800804 	movi	r6,32
    26c0:	1105883a 	add	r2,r2,r4
    26c4:	10c00003 	ldbu	r3,0(r2)
    26c8:	28c7883a 	add	r3,r5,r3
    26cc:	30f9c83a 	sub	fp,r6,r3
    26d0:	e000331e 	bne	fp,zero,27a0 <__divdi3+0x3bc>
    26d4:	45000136 	bltu	r8,r20,26dc <__divdi3+0x2f8>
    26d8:	bc3f9736 	bltu	r23,r16,2538 <__divdi3+0x154>
    26dc:	00800044 	movi	r2,1
    26e0:	0007883a 	mov	r3,zero
    26e4:	003f9606 	br	2540 <__divdi3+0x15c>
    26e8:	0009883a 	mov	r4,zero
    26ec:	2285c83a 	sub	r2,r4,r10
    26f0:	02c7c83a 	sub	r3,zero,r11
    26f4:	2089803a 	cmpltu	r4,r4,r2
    26f8:	1909c83a 	sub	r4,r3,r4
    26fc:	d8c00617 	ldw	r3,24(sp)
    2700:	1015883a 	mov	r10,r2
    2704:	2017883a 	mov	r11,r4
    2708:	00c6303a 	nor	r3,zero,r3
    270c:	d8c00615 	stw	r3,24(sp)
    2710:	003f4806 	br	2434 <__divdi3+0x50>
    2714:	0009883a 	mov	r4,zero
    2718:	2085c83a 	sub	r2,r4,r2
    271c:	2089803a 	cmpltu	r4,r4,r2
    2720:	00c7c83a 	sub	r3,zero,r3
    2724:	1909c83a 	sub	r4,r3,r4
    2728:	1019883a 	mov	r12,r2
    272c:	201b883a 	mov	r13,r4
    2730:	00bfffc4 	movi	r2,-1
    2734:	d8800615 	stw	r2,24(sp)
    2738:	003f3d06 	br	2430 <__divdi3+0x4c>
    273c:	00804034 	movhi	r2,256
    2740:	10bfffc4 	addi	r2,r2,-1
    2744:	1400aa36 	bltu	r2,r16,29f0 <__divdi3+0x60c>
    2748:	01400404 	movi	r5,16
    274c:	2805883a 	mov	r2,r5
    2750:	003f4406 	br	2464 <__divdi3+0x80>
    2754:	00804034 	movhi	r2,256
    2758:	10bfffc4 	addi	r2,r2,-1
    275c:	12c09b36 	bltu	r2,r11,29cc <__divdi3+0x5e8>
    2760:	01400404 	movi	r5,16
    2764:	2805883a 	mov	r2,r5
    2768:	003fd106 	br	26b0 <__divdi3+0x2cc>
    276c:	00804034 	movhi	r2,256
    2770:	10bfffc4 	addi	r2,r2,-1
    2774:	1280a136 	bltu	r2,r10,29fc <__divdi3+0x618>
    2778:	01400404 	movi	r5,16
    277c:	2805883a 	mov	r2,r5
    2780:	003f8f06 	br	25c0 <__divdi3+0x1dc>
    2784:	01000044 	movi	r4,1
    2788:	000b883a 	mov	r5,zero
    278c:	00037140 	call	3714 <__udivsi3>
    2790:	1021883a 	mov	r16,r2
    2794:	00bfffd4 	movui	r2,65535
    2798:	143fe836 	bltu	r2,r16,273c <__divdi3+0x358>
    279c:	003f2d06 	br	2454 <__divdi3+0x70>
    27a0:	3705c83a 	sub	r2,r6,fp
    27a4:	4708983a 	sll	r4,r8,fp
    27a8:	8086d83a 	srl	r3,r16,r2
    27ac:	a0a2d83a 	srl	r17,r20,r2
    27b0:	b884d83a 	srl	r2,r23,r2
    27b4:	20eab03a 	or	r21,r4,r3
    27b8:	a82cd43a 	srli	r22,r21,16
    27bc:	a706983a 	sll	r3,r20,fp
    27c0:	8809883a 	mov	r4,r17
    27c4:	b00b883a 	mov	r5,r22
    27c8:	1886b03a 	or	r3,r3,r2
    27cc:	d8c00215 	stw	r3,8(sp)
    27d0:	00037140 	call	3714 <__udivsi3>
    27d4:	8809883a 	mov	r4,r17
    27d8:	b00b883a 	mov	r5,r22
    27dc:	1029883a 	mov	r20,r2
    27e0:	000371c0 	call	371c <__umodsi3>
    27e4:	a8ffffcc 	andi	r3,r21,65535
    27e8:	d8c00515 	stw	r3,20(sp)
    27ec:	d9000217 	ldw	r4,8(sp)
    27f0:	d9400517 	ldw	r5,20(sp)
    27f4:	1004943a 	slli	r2,r2,16
    27f8:	2006d43a 	srli	r3,r4,16
    27fc:	8720983a 	sll	r16,r16,fp
    2800:	2d23383a 	mul	r17,r5,r20
    2804:	10c4b03a 	or	r2,r2,r3
    2808:	dc000015 	stw	r16,0(sp)
    280c:	1440032e 	bgeu	r2,r17,281c <__divdi3+0x438>
    2810:	1545883a 	add	r2,r2,r21
    2814:	a53fffc4 	addi	r20,r20,-1
    2818:	1540842e 	bgeu	r2,r21,2a2c <__divdi3+0x648>
    281c:	1463c83a 	sub	r17,r2,r17
    2820:	8809883a 	mov	r4,r17
    2824:	b00b883a 	mov	r5,r22
    2828:	00037140 	call	3714 <__udivsi3>
    282c:	8809883a 	mov	r4,r17
    2830:	b00b883a 	mov	r5,r22
    2834:	1021883a 	mov	r16,r2
    2838:	000371c0 	call	371c <__umodsi3>
    283c:	d8c00517 	ldw	r3,20(sp)
    2840:	d9000217 	ldw	r4,8(sp)
    2844:	1004943a 	slli	r2,r2,16
    2848:	1c0f383a 	mul	r7,r3,r16
    284c:	20ffffcc 	andi	r3,r4,65535
    2850:	10e2b03a 	or	r17,r2,r3
    2854:	89c0032e 	bgeu	r17,r7,2864 <__divdi3+0x480>
    2858:	8d63883a 	add	r17,r17,r21
    285c:	843fffc4 	addi	r16,r16,-1
    2860:	8d406e2e 	bgeu	r17,r21,2a1c <__divdi3+0x638>
    2864:	a008943a 	slli	r4,r20,16
    2868:	d9400017 	ldw	r5,0(sp)
    286c:	89e3c83a 	sub	r17,r17,r7
    2870:	8110b03a 	or	r8,r16,r4
    2874:	280cd43a 	srli	r6,r5,16
    2878:	28ffffcc 	andi	r3,r5,65535
    287c:	40bfffcc 	andi	r2,r8,65535
    2880:	400ad43a 	srli	r5,r8,16
    2884:	10d3383a 	mul	r9,r2,r3
    2888:	1185383a 	mul	r2,r2,r6
    288c:	28c7383a 	mul	r3,r5,r3
    2890:	4808d43a 	srli	r4,r9,16
    2894:	298b383a 	mul	r5,r5,r6
    2898:	10c5883a 	add	r2,r2,r3
    289c:	2089883a 	add	r4,r4,r2
    28a0:	20c0022e 	bgeu	r4,r3,28ac <__divdi3+0x4c8>
    28a4:	00800074 	movhi	r2,1
    28a8:	288b883a 	add	r5,r5,r2
    28ac:	2004d43a 	srli	r2,r4,16
    28b0:	288b883a 	add	r5,r5,r2
    28b4:	89403f36 	bltu	r17,r5,29b4 <__divdi3+0x5d0>
    28b8:	89403926 	beq	r17,r5,29a0 <__divdi3+0x5bc>
    28bc:	4005883a 	mov	r2,r8
    28c0:	0007883a 	mov	r3,zero
    28c4:	003f1e06 	br	2540 <__divdi3+0x15c>
    28c8:	85a0983a 	sll	r16,r16,r22
    28cc:	3585c83a 	sub	r2,r6,r22
    28d0:	a0a2d83a 	srl	r17,r20,r2
    28d4:	802ad43a 	srli	r21,r16,16
    28d8:	b884d83a 	srl	r2,r23,r2
    28dc:	a586983a 	sll	r3,r20,r22
    28e0:	8809883a 	mov	r4,r17
    28e4:	a80b883a 	mov	r5,r21
    28e8:	1886b03a 	or	r3,r3,r2
    28ec:	d8c00115 	stw	r3,4(sp)
    28f0:	00037140 	call	3714 <__udivsi3>
    28f4:	8809883a 	mov	r4,r17
    28f8:	a80b883a 	mov	r5,r21
    28fc:	d8800415 	stw	r2,16(sp)
    2900:	000371c0 	call	371c <__umodsi3>
    2904:	d9400117 	ldw	r5,4(sp)
    2908:	d9000417 	ldw	r4,16(sp)
    290c:	1004943a 	slli	r2,r2,16
    2910:	873fffcc 	andi	fp,r16,65535
    2914:	2806d43a 	srli	r3,r5,16
    2918:	e123383a 	mul	r17,fp,r4
    291c:	10c4b03a 	or	r2,r2,r3
    2920:	1440042e 	bgeu	r2,r17,2934 <__divdi3+0x550>
    2924:	213fffc4 	addi	r4,r4,-1
    2928:	1405883a 	add	r2,r2,r16
    292c:	d9000415 	stw	r4,16(sp)
    2930:	1400352e 	bgeu	r2,r16,2a08 <__divdi3+0x624>
    2934:	1463c83a 	sub	r17,r2,r17
    2938:	8809883a 	mov	r4,r17
    293c:	a80b883a 	mov	r5,r21
    2940:	00037140 	call	3714 <__udivsi3>
    2944:	8809883a 	mov	r4,r17
    2948:	a80b883a 	mov	r5,r21
    294c:	1029883a 	mov	r20,r2
    2950:	000371c0 	call	371c <__umodsi3>
    2954:	d9400117 	ldw	r5,4(sp)
    2958:	1004943a 	slli	r2,r2,16
    295c:	e509383a 	mul	r4,fp,r20
    2960:	28ffffcc 	andi	r3,r5,65535
    2964:	10c6b03a 	or	r3,r2,r3
    2968:	1900062e 	bgeu	r3,r4,2984 <__divdi3+0x5a0>
    296c:	1c07883a 	add	r3,r3,r16
    2970:	a53fffc4 	addi	r20,r20,-1
    2974:	1c000336 	bltu	r3,r16,2984 <__divdi3+0x5a0>
    2978:	1900022e 	bgeu	r3,r4,2984 <__divdi3+0x5a0>
    297c:	a53fffc4 	addi	r20,r20,-1
    2980:	1c07883a 	add	r3,r3,r16
    2984:	d9400417 	ldw	r5,16(sp)
    2988:	bdae983a 	sll	r23,r23,r22
    298c:	1923c83a 	sub	r17,r3,r4
    2990:	2804943a 	slli	r2,r5,16
    2994:	a0a8b03a 	or	r20,r20,r2
    2998:	dd000315 	stw	r20,12(sp)
    299c:	003ebf06 	br	249c <__divdi3+0xb8>
    29a0:	2004943a 	slli	r2,r4,16
    29a4:	bf08983a 	sll	r4,r23,fp
    29a8:	48ffffcc 	andi	r3,r9,65535
    29ac:	10c5883a 	add	r2,r2,r3
    29b0:	20bfc22e 	bgeu	r4,r2,28bc <__divdi3+0x4d8>
    29b4:	40bfffc4 	addi	r2,r8,-1
    29b8:	0007883a 	mov	r3,zero
    29bc:	003ee006 	br	2540 <__divdi3+0x15c>
    29c0:	01400204 	movi	r5,8
    29c4:	2805883a 	mov	r2,r5
    29c8:	003efd06 	br	25c0 <__divdi3+0x1dc>
    29cc:	01400604 	movi	r5,24
    29d0:	2805883a 	mov	r2,r5
    29d4:	003f3606 	br	26b0 <__divdi3+0x2cc>
    29d8:	01400204 	movi	r5,8
    29dc:	2805883a 	mov	r2,r5
    29e0:	003ea006 	br	2464 <__divdi3+0x80>
    29e4:	01400204 	movi	r5,8
    29e8:	2805883a 	mov	r2,r5
    29ec:	003f3006 	br	26b0 <__divdi3+0x2cc>
    29f0:	01400604 	movi	r5,24
    29f4:	2805883a 	mov	r2,r5
    29f8:	003e9a06 	br	2464 <__divdi3+0x80>
    29fc:	01400604 	movi	r5,24
    2a00:	2805883a 	mov	r2,r5
    2a04:	003eee06 	br	25c0 <__divdi3+0x1dc>
    2a08:	147fca2e 	bgeu	r2,r17,2934 <__divdi3+0x550>
    2a0c:	213fffc4 	addi	r4,r4,-1
    2a10:	1405883a 	add	r2,r2,r16
    2a14:	d9000415 	stw	r4,16(sp)
    2a18:	003fc606 	br	2934 <__divdi3+0x550>
    2a1c:	89ff912e 	bgeu	r17,r7,2864 <__divdi3+0x480>
    2a20:	8d63883a 	add	r17,r17,r21
    2a24:	843fffc4 	addi	r16,r16,-1
    2a28:	003f8e06 	br	2864 <__divdi3+0x480>
    2a2c:	147f7b2e 	bgeu	r2,r17,281c <__divdi3+0x438>
    2a30:	a53fffc4 	addi	r20,r20,-1
    2a34:	1545883a 	add	r2,r2,r21
    2a38:	003f7806 	br	281c <__divdi3+0x438>
    2a3c:	a53fffc4 	addi	r20,r20,-1
    2a40:	003eb706 	br	2520 <__divdi3+0x13c>
    2a44:	a53fffc4 	addi	r20,r20,-1
    2a48:	003f0f06 	br	2688 <__divdi3+0x2a4>
    2a4c:	b5bfffc4 	addi	r22,r22,-1
    2a50:	1405883a 	add	r2,r2,r16
    2a54:	003efb06 	br	2644 <__divdi3+0x260>
    2a58:	b5bfffc4 	addi	r22,r22,-1
    2a5c:	1405883a 	add	r2,r2,r16
    2a60:	003e9e06 	br	24dc <__divdi3+0xf8>

00002a64 <__extendsfdf2>:
    2a64:	defff904 	addi	sp,sp,-28
    2a68:	d9000115 	stw	r4,4(sp)
    2a6c:	d9400204 	addi	r5,sp,8
    2a70:	d9000104 	addi	r4,sp,4
    2a74:	dfc00615 	stw	ra,24(sp)
    2a78:	00039040 	call	3904 <__unpack_f>
    2a7c:	d9c00517 	ldw	r7,20(sp)
    2a80:	0011883a 	mov	r8,zero
    2a84:	400697ba 	slli	r3,r8,30
    2a88:	3812d0ba 	srli	r9,r7,2
    2a8c:	380497ba 	slli	r2,r7,30
    2a90:	d9000217 	ldw	r4,8(sp)
    2a94:	d9400317 	ldw	r5,12(sp)
    2a98:	d9800417 	ldw	r6,16(sp)
    2a9c:	48c6b03a 	or	r3,r9,r3
    2aa0:	100f883a 	mov	r7,r2
    2aa4:	d8c00015 	stw	r3,0(sp)
    2aa8:	00035a00 	call	35a0 <__make_dp>
    2aac:	dfc00617 	ldw	ra,24(sp)
    2ab0:	dec00704 	addi	sp,sp,28
    2ab4:	f800283a 	ret

00002ab8 <__floatunsisf>:
    2ab8:	defff904 	addi	sp,sp,-28
    2abc:	dc400515 	stw	r17,20(sp)
    2ac0:	dc000415 	stw	r16,16(sp)
    2ac4:	dfc00615 	stw	ra,24(sp)
    2ac8:	04400784 	movi	r17,30
    2acc:	2021883a 	mov	r16,r4
    2ad0:	d8000115 	stw	zero,4(sp)
    2ad4:	2000091e 	bne	r4,zero,2afc <__floatunsisf+0x44>
    2ad8:	00800084 	movi	r2,2
    2adc:	d8800015 	stw	r2,0(sp)
    2ae0:	d809883a 	mov	r4,sp
    2ae4:	00037a40 	call	37a4 <__pack_f>
    2ae8:	dfc00617 	ldw	ra,24(sp)
    2aec:	dc400517 	ldw	r17,20(sp)
    2af0:	dc000417 	ldw	r16,16(sp)
    2af4:	dec00704 	addi	sp,sp,28
    2af8:	f800283a 	ret
    2afc:	008000c4 	movi	r2,3
    2b00:	d9000315 	stw	r4,12(sp)
    2b04:	d8800015 	stw	r2,0(sp)
    2b08:	dc400215 	stw	r17,8(sp)
    2b0c:	00037240 	call	3724 <__clzsi2>
    2b10:	117fffc4 	addi	r5,r2,-1
    2b14:	0147c83a 	sub	r3,zero,r5
    2b18:	00800044 	movi	r2,1
    2b1c:	10c4983a 	sll	r2,r2,r3
    2b20:	80c6d83a 	srl	r3,r16,r3
    2b24:	8949c83a 	sub	r4,r17,r5
    2b28:	10bfffc4 	addi	r2,r2,-1
    2b2c:	8084703a 	and	r2,r16,r2
    2b30:	1004c03a 	cmpne	r2,r2,zero
    2b34:	1886b03a 	or	r3,r3,r2
    2b38:	28000c16 	blt	r5,zero,2b6c <__floatunsisf+0xb4>
    2b3c:	8144983a 	sll	r2,r16,r5
    2b40:	8947c83a 	sub	r3,r17,r5
    2b44:	283fe626 	beq	r5,zero,2ae0 <__floatunsisf+0x28>
    2b48:	d809883a 	mov	r4,sp
    2b4c:	d8800315 	stw	r2,12(sp)
    2b50:	d8c00215 	stw	r3,8(sp)
    2b54:	00037a40 	call	37a4 <__pack_f>
    2b58:	dfc00617 	ldw	ra,24(sp)
    2b5c:	dc400517 	ldw	r17,20(sp)
    2b60:	dc000417 	ldw	r16,16(sp)
    2b64:	dec00704 	addi	sp,sp,28
    2b68:	f800283a 	ret
    2b6c:	d8c00315 	stw	r3,12(sp)
    2b70:	d9000215 	stw	r4,8(sp)
    2b74:	003fda06 	br	2ae0 <__floatunsisf+0x28>

00002b78 <_fpadd_parts>:
    2b78:	defff804 	addi	sp,sp,-32
    2b7c:	dcc00315 	stw	r19,12(sp)
    2b80:	2027883a 	mov	r19,r4
    2b84:	21000017 	ldw	r4,0(r4)
    2b88:	00c00044 	movi	r3,1
    2b8c:	dd400515 	stw	r21,20(sp)
    2b90:	dd000415 	stw	r20,16(sp)
    2b94:	ddc00715 	stw	r23,28(sp)
    2b98:	dd800615 	stw	r22,24(sp)
    2b9c:	dc800215 	stw	r18,8(sp)
    2ba0:	dc400115 	stw	r17,4(sp)
    2ba4:	dc000015 	stw	r16,0(sp)
    2ba8:	282b883a 	mov	r21,r5
    2bac:	3029883a 	mov	r20,r6
    2bb0:	1900632e 	bgeu	r3,r4,2d40 <_fpadd_parts+0x1c8>
    2bb4:	28800017 	ldw	r2,0(r5)
    2bb8:	1880812e 	bgeu	r3,r2,2dc0 <_fpadd_parts+0x248>
    2bbc:	00c00104 	movi	r3,4
    2bc0:	20c0dc26 	beq	r4,r3,2f34 <_fpadd_parts+0x3bc>
    2bc4:	10c07e26 	beq	r2,r3,2dc0 <_fpadd_parts+0x248>
    2bc8:	00c00084 	movi	r3,2
    2bcc:	10c06726 	beq	r2,r3,2d6c <_fpadd_parts+0x1f4>
    2bd0:	20c07b26 	beq	r4,r3,2dc0 <_fpadd_parts+0x248>
    2bd4:	9dc00217 	ldw	r23,8(r19)
    2bd8:	28c00217 	ldw	r3,8(r5)
    2bdc:	9c400317 	ldw	r17,12(r19)
    2be0:	2bc00317 	ldw	r15,12(r5)
    2be4:	b8cdc83a 	sub	r6,r23,r3
    2be8:	9c800417 	ldw	r18,16(r19)
    2bec:	2c000417 	ldw	r16,16(r5)
    2bf0:	3009883a 	mov	r4,r6
    2bf4:	30009716 	blt	r6,zero,2e54 <_fpadd_parts+0x2dc>
    2bf8:	00800fc4 	movi	r2,63
    2bfc:	11806b16 	blt	r2,r6,2dac <_fpadd_parts+0x234>
    2c00:	0100a40e 	bge	zero,r4,2e94 <_fpadd_parts+0x31c>
    2c04:	35bff804 	addi	r22,r6,-32
    2c08:	b000bc16 	blt	r22,zero,2efc <_fpadd_parts+0x384>
    2c0c:	8596d83a 	srl	r11,r16,r22
    2c10:	0019883a 	mov	r12,zero
    2c14:	0013883a 	mov	r9,zero
    2c18:	01000044 	movi	r4,1
    2c1c:	0015883a 	mov	r10,zero
    2c20:	b000be16 	blt	r22,zero,2f1c <_fpadd_parts+0x3a4>
    2c24:	2590983a 	sll	r8,r4,r22
    2c28:	000f883a 	mov	r7,zero
    2c2c:	00bfffc4 	movi	r2,-1
    2c30:	3889883a 	add	r4,r7,r2
    2c34:	408b883a 	add	r5,r8,r2
    2c38:	21cd803a 	cmpltu	r6,r4,r7
    2c3c:	314b883a 	add	r5,r6,r5
    2c40:	7904703a 	and	r2,r15,r4
    2c44:	8146703a 	and	r3,r16,r5
    2c48:	10c4b03a 	or	r2,r2,r3
    2c4c:	10000226 	beq	r2,zero,2c58 <_fpadd_parts+0xe0>
    2c50:	02400044 	movi	r9,1
    2c54:	0015883a 	mov	r10,zero
    2c58:	5a5eb03a 	or	r15,r11,r9
    2c5c:	62a0b03a 	or	r16,r12,r10
    2c60:	99400117 	ldw	r5,4(r19)
    2c64:	a8800117 	ldw	r2,4(r21)
    2c68:	28806e26 	beq	r5,r2,2e24 <_fpadd_parts+0x2ac>
    2c6c:	28006626 	beq	r5,zero,2e08 <_fpadd_parts+0x290>
    2c70:	7c45c83a 	sub	r2,r15,r17
    2c74:	7889803a 	cmpltu	r4,r15,r2
    2c78:	8487c83a 	sub	r3,r16,r18
    2c7c:	1909c83a 	sub	r4,r3,r4
    2c80:	100d883a 	mov	r6,r2
    2c84:	200f883a 	mov	r7,r4
    2c88:	38007716 	blt	r7,zero,2e68 <_fpadd_parts+0x2f0>
    2c8c:	a5c00215 	stw	r23,8(r20)
    2c90:	a1c00415 	stw	r7,16(r20)
    2c94:	a0000115 	stw	zero,4(r20)
    2c98:	a1800315 	stw	r6,12(r20)
    2c9c:	a2000317 	ldw	r8,12(r20)
    2ca0:	a2400417 	ldw	r9,16(r20)
    2ca4:	00bfffc4 	movi	r2,-1
    2ca8:	408b883a 	add	r5,r8,r2
    2cac:	2a09803a 	cmpltu	r4,r5,r8
    2cb0:	488d883a 	add	r6,r9,r2
    2cb4:	01c40034 	movhi	r7,4096
    2cb8:	39ffffc4 	addi	r7,r7,-1
    2cbc:	218d883a 	add	r6,r4,r6
    2cc0:	39801736 	bltu	r7,r6,2d20 <_fpadd_parts+0x1a8>
    2cc4:	31c06526 	beq	r6,r7,2e5c <_fpadd_parts+0x2e4>
    2cc8:	a3000217 	ldw	r12,8(r20)
    2ccc:	4209883a 	add	r4,r8,r8
    2cd0:	00bfffc4 	movi	r2,-1
    2cd4:	220f803a 	cmpltu	r7,r4,r8
    2cd8:	4a4b883a 	add	r5,r9,r9
    2cdc:	394f883a 	add	r7,r7,r5
    2ce0:	2095883a 	add	r10,r4,r2
    2ce4:	3897883a 	add	r11,r7,r2
    2ce8:	510d803a 	cmpltu	r6,r10,r4
    2cec:	6099883a 	add	r12,r12,r2
    2cf0:	32d7883a 	add	r11,r6,r11
    2cf4:	00840034 	movhi	r2,4096
    2cf8:	10bfffc4 	addi	r2,r2,-1
    2cfc:	2011883a 	mov	r8,r4
    2d00:	3813883a 	mov	r9,r7
    2d04:	a1000315 	stw	r4,12(r20)
    2d08:	a1c00415 	stw	r7,16(r20)
    2d0c:	a3000215 	stw	r12,8(r20)
    2d10:	12c00336 	bltu	r2,r11,2d20 <_fpadd_parts+0x1a8>
    2d14:	58bfed1e 	bne	r11,r2,2ccc <_fpadd_parts+0x154>
    2d18:	00bfff84 	movi	r2,-2
    2d1c:	12bfeb2e 	bgeu	r2,r10,2ccc <_fpadd_parts+0x154>
    2d20:	a2800417 	ldw	r10,16(r20)
    2d24:	008000c4 	movi	r2,3
    2d28:	00c80034 	movhi	r3,8192
    2d2c:	18ffffc4 	addi	r3,r3,-1
    2d30:	a2400317 	ldw	r9,12(r20)
    2d34:	a0800015 	stw	r2,0(r20)
    2d38:	1a802336 	bltu	r3,r10,2dc8 <_fpadd_parts+0x250>
    2d3c:	a027883a 	mov	r19,r20
    2d40:	9805883a 	mov	r2,r19
    2d44:	ddc00717 	ldw	r23,28(sp)
    2d48:	dd800617 	ldw	r22,24(sp)
    2d4c:	dd400517 	ldw	r21,20(sp)
    2d50:	dd000417 	ldw	r20,16(sp)
    2d54:	dcc00317 	ldw	r19,12(sp)
    2d58:	dc800217 	ldw	r18,8(sp)
    2d5c:	dc400117 	ldw	r17,4(sp)
    2d60:	dc000017 	ldw	r16,0(sp)
    2d64:	dec00804 	addi	sp,sp,32
    2d68:	f800283a 	ret
    2d6c:	20fff41e 	bne	r4,r3,2d40 <_fpadd_parts+0x1c8>
    2d70:	31000015 	stw	r4,0(r6)
    2d74:	98800117 	ldw	r2,4(r19)
    2d78:	30800115 	stw	r2,4(r6)
    2d7c:	98c00217 	ldw	r3,8(r19)
    2d80:	30c00215 	stw	r3,8(r6)
    2d84:	98800317 	ldw	r2,12(r19)
    2d88:	30800315 	stw	r2,12(r6)
    2d8c:	98c00417 	ldw	r3,16(r19)
    2d90:	30c00415 	stw	r3,16(r6)
    2d94:	98800117 	ldw	r2,4(r19)
    2d98:	28c00117 	ldw	r3,4(r5)
    2d9c:	3027883a 	mov	r19,r6
    2da0:	10c4703a 	and	r2,r2,r3
    2da4:	30800115 	stw	r2,4(r6)
    2da8:	003fe506 	br	2d40 <_fpadd_parts+0x1c8>
    2dac:	1dc02616 	blt	r3,r23,2e48 <_fpadd_parts+0x2d0>
    2db0:	0023883a 	mov	r17,zero
    2db4:	182f883a 	mov	r23,r3
    2db8:	0025883a 	mov	r18,zero
    2dbc:	003fa806 	br	2c60 <_fpadd_parts+0xe8>
    2dc0:	a827883a 	mov	r19,r21
    2dc4:	003fde06 	br	2d40 <_fpadd_parts+0x1c8>
    2dc8:	01800044 	movi	r6,1
    2dcc:	500497fa 	slli	r2,r10,31
    2dd0:	4808d07a 	srli	r4,r9,1
    2dd4:	518ad83a 	srl	r5,r10,r6
    2dd8:	a2000217 	ldw	r8,8(r20)
    2ddc:	1108b03a 	or	r4,r2,r4
    2de0:	0007883a 	mov	r3,zero
    2de4:	4984703a 	and	r2,r9,r6
    2de8:	208cb03a 	or	r6,r4,r2
    2dec:	28ceb03a 	or	r7,r5,r3
    2df0:	42000044 	addi	r8,r8,1
    2df4:	a027883a 	mov	r19,r20
    2df8:	a1c00415 	stw	r7,16(r20)
    2dfc:	a2000215 	stw	r8,8(r20)
    2e00:	a1800315 	stw	r6,12(r20)
    2e04:	003fce06 	br	2d40 <_fpadd_parts+0x1c8>
    2e08:	8bc5c83a 	sub	r2,r17,r15
    2e0c:	8889803a 	cmpltu	r4,r17,r2
    2e10:	9407c83a 	sub	r3,r18,r16
    2e14:	1909c83a 	sub	r4,r3,r4
    2e18:	100d883a 	mov	r6,r2
    2e1c:	200f883a 	mov	r7,r4
    2e20:	003f9906 	br	2c88 <_fpadd_parts+0x110>
    2e24:	7c45883a 	add	r2,r15,r17
    2e28:	13c9803a 	cmpltu	r4,r2,r15
    2e2c:	8487883a 	add	r3,r16,r18
    2e30:	20c9883a 	add	r4,r4,r3
    2e34:	a1400115 	stw	r5,4(r20)
    2e38:	a5c00215 	stw	r23,8(r20)
    2e3c:	a0800315 	stw	r2,12(r20)
    2e40:	a1000415 	stw	r4,16(r20)
    2e44:	003fb606 	br	2d20 <_fpadd_parts+0x1a8>
    2e48:	001f883a 	mov	r15,zero
    2e4c:	0021883a 	mov	r16,zero
    2e50:	003f8306 	br	2c60 <_fpadd_parts+0xe8>
    2e54:	018dc83a 	sub	r6,zero,r6
    2e58:	003f6706 	br	2bf8 <_fpadd_parts+0x80>
    2e5c:	00bfff84 	movi	r2,-2
    2e60:	117faf36 	bltu	r2,r5,2d20 <_fpadd_parts+0x1a8>
    2e64:	003f9806 	br	2cc8 <_fpadd_parts+0x150>
    2e68:	0005883a 	mov	r2,zero
    2e6c:	1189c83a 	sub	r4,r2,r6
    2e70:	1105803a 	cmpltu	r2,r2,r4
    2e74:	01cbc83a 	sub	r5,zero,r7
    2e78:	2885c83a 	sub	r2,r5,r2
    2e7c:	01800044 	movi	r6,1
    2e80:	a1800115 	stw	r6,4(r20)
    2e84:	a5c00215 	stw	r23,8(r20)
    2e88:	a1000315 	stw	r4,12(r20)
    2e8c:	a0800415 	stw	r2,16(r20)
    2e90:	003f8206 	br	2c9c <_fpadd_parts+0x124>
    2e94:	203f7226 	beq	r4,zero,2c60 <_fpadd_parts+0xe8>
    2e98:	35bff804 	addi	r22,r6,-32
    2e9c:	b9af883a 	add	r23,r23,r6
    2ea0:	b0003116 	blt	r22,zero,2f68 <_fpadd_parts+0x3f0>
    2ea4:	959ad83a 	srl	r13,r18,r22
    2ea8:	001d883a 	mov	r14,zero
    2eac:	000f883a 	mov	r7,zero
    2eb0:	01000044 	movi	r4,1
    2eb4:	0011883a 	mov	r8,zero
    2eb8:	b0002516 	blt	r22,zero,2f50 <_fpadd_parts+0x3d8>
    2ebc:	2594983a 	sll	r10,r4,r22
    2ec0:	0013883a 	mov	r9,zero
    2ec4:	00bfffc4 	movi	r2,-1
    2ec8:	4889883a 	add	r4,r9,r2
    2ecc:	508b883a 	add	r5,r10,r2
    2ed0:	224d803a 	cmpltu	r6,r4,r9
    2ed4:	314b883a 	add	r5,r6,r5
    2ed8:	8904703a 	and	r2,r17,r4
    2edc:	9146703a 	and	r3,r18,r5
    2ee0:	10c4b03a 	or	r2,r2,r3
    2ee4:	10000226 	beq	r2,zero,2ef0 <_fpadd_parts+0x378>
    2ee8:	01c00044 	movi	r7,1
    2eec:	0011883a 	mov	r8,zero
    2ef0:	69e2b03a 	or	r17,r13,r7
    2ef4:	7224b03a 	or	r18,r14,r8
    2ef8:	003f5906 	br	2c60 <_fpadd_parts+0xe8>
    2efc:	8407883a 	add	r3,r16,r16
    2f00:	008007c4 	movi	r2,31
    2f04:	1185c83a 	sub	r2,r2,r6
    2f08:	1886983a 	sll	r3,r3,r2
    2f0c:	7996d83a 	srl	r11,r15,r6
    2f10:	8198d83a 	srl	r12,r16,r6
    2f14:	1ad6b03a 	or	r11,r3,r11
    2f18:	003f3e06 	br	2c14 <_fpadd_parts+0x9c>
    2f1c:	2006d07a 	srli	r3,r4,1
    2f20:	008007c4 	movi	r2,31
    2f24:	1185c83a 	sub	r2,r2,r6
    2f28:	1890d83a 	srl	r8,r3,r2
    2f2c:	218e983a 	sll	r7,r4,r6
    2f30:	003f3e06 	br	2c2c <_fpadd_parts+0xb4>
    2f34:	113f821e 	bne	r2,r4,2d40 <_fpadd_parts+0x1c8>
    2f38:	28c00117 	ldw	r3,4(r5)
    2f3c:	98800117 	ldw	r2,4(r19)
    2f40:	10ff7f26 	beq	r2,r3,2d40 <_fpadd_parts+0x1c8>
    2f44:	04c00074 	movhi	r19,1
    2f48:	9cf2fc04 	addi	r19,r19,-13328
    2f4c:	003f7c06 	br	2d40 <_fpadd_parts+0x1c8>
    2f50:	2006d07a 	srli	r3,r4,1
    2f54:	008007c4 	movi	r2,31
    2f58:	1185c83a 	sub	r2,r2,r6
    2f5c:	1894d83a 	srl	r10,r3,r2
    2f60:	2192983a 	sll	r9,r4,r6
    2f64:	003fd706 	br	2ec4 <_fpadd_parts+0x34c>
    2f68:	9487883a 	add	r3,r18,r18
    2f6c:	008007c4 	movi	r2,31
    2f70:	1185c83a 	sub	r2,r2,r6
    2f74:	1886983a 	sll	r3,r3,r2
    2f78:	899ad83a 	srl	r13,r17,r6
    2f7c:	919cd83a 	srl	r14,r18,r6
    2f80:	1b5ab03a 	or	r13,r3,r13
    2f84:	003fc906 	br	2eac <_fpadd_parts+0x334>

00002f88 <__subdf3>:
    2f88:	deffea04 	addi	sp,sp,-88
    2f8c:	dcc01415 	stw	r19,80(sp)
    2f90:	dcc00404 	addi	r19,sp,16
    2f94:	2011883a 	mov	r8,r4
    2f98:	2813883a 	mov	r9,r5
    2f9c:	dc401315 	stw	r17,76(sp)
    2fa0:	d809883a 	mov	r4,sp
    2fa4:	980b883a 	mov	r5,r19
    2fa8:	dc400904 	addi	r17,sp,36
    2fac:	dfc01515 	stw	ra,84(sp)
    2fb0:	da400115 	stw	r9,4(sp)
    2fb4:	d9c00315 	stw	r7,12(sp)
    2fb8:	da000015 	stw	r8,0(sp)
    2fbc:	d9800215 	stw	r6,8(sp)
    2fc0:	0003ce00 	call	3ce0 <__unpack_d>
    2fc4:	d9000204 	addi	r4,sp,8
    2fc8:	880b883a 	mov	r5,r17
    2fcc:	0003ce00 	call	3ce0 <__unpack_d>
    2fd0:	d8800a17 	ldw	r2,40(sp)
    2fd4:	880b883a 	mov	r5,r17
    2fd8:	9809883a 	mov	r4,r19
    2fdc:	d9800e04 	addi	r6,sp,56
    2fe0:	1080005c 	xori	r2,r2,1
    2fe4:	d8800a15 	stw	r2,40(sp)
    2fe8:	0002b780 	call	2b78 <_fpadd_parts>
    2fec:	1009883a 	mov	r4,r2
    2ff0:	00039cc0 	call	39cc <__pack_d>
    2ff4:	dfc01517 	ldw	ra,84(sp)
    2ff8:	dcc01417 	ldw	r19,80(sp)
    2ffc:	dc401317 	ldw	r17,76(sp)
    3000:	dec01604 	addi	sp,sp,88
    3004:	f800283a 	ret

00003008 <__adddf3>:
    3008:	deffea04 	addi	sp,sp,-88
    300c:	dcc01415 	stw	r19,80(sp)
    3010:	dcc00404 	addi	r19,sp,16
    3014:	2011883a 	mov	r8,r4
    3018:	2813883a 	mov	r9,r5
    301c:	dc401315 	stw	r17,76(sp)
    3020:	d809883a 	mov	r4,sp
    3024:	980b883a 	mov	r5,r19
    3028:	dc400904 	addi	r17,sp,36
    302c:	dfc01515 	stw	ra,84(sp)
    3030:	da400115 	stw	r9,4(sp)
    3034:	d9c00315 	stw	r7,12(sp)
    3038:	da000015 	stw	r8,0(sp)
    303c:	d9800215 	stw	r6,8(sp)
    3040:	0003ce00 	call	3ce0 <__unpack_d>
    3044:	d9000204 	addi	r4,sp,8
    3048:	880b883a 	mov	r5,r17
    304c:	0003ce00 	call	3ce0 <__unpack_d>
    3050:	d9800e04 	addi	r6,sp,56
    3054:	9809883a 	mov	r4,r19
    3058:	880b883a 	mov	r5,r17
    305c:	0002b780 	call	2b78 <_fpadd_parts>
    3060:	1009883a 	mov	r4,r2
    3064:	00039cc0 	call	39cc <__pack_d>
    3068:	dfc01517 	ldw	ra,84(sp)
    306c:	dcc01417 	ldw	r19,80(sp)
    3070:	dc401317 	ldw	r17,76(sp)
    3074:	dec01604 	addi	sp,sp,88
    3078:	f800283a 	ret

0000307c <__muldf3>:
    307c:	deffe004 	addi	sp,sp,-128
    3080:	dc401815 	stw	r17,96(sp)
    3084:	dc400404 	addi	r17,sp,16
    3088:	2011883a 	mov	r8,r4
    308c:	2813883a 	mov	r9,r5
    3090:	dc001715 	stw	r16,92(sp)
    3094:	d809883a 	mov	r4,sp
    3098:	880b883a 	mov	r5,r17
    309c:	dc000904 	addi	r16,sp,36
    30a0:	dfc01f15 	stw	ra,124(sp)
    30a4:	da400115 	stw	r9,4(sp)
    30a8:	d9c00315 	stw	r7,12(sp)
    30ac:	da000015 	stw	r8,0(sp)
    30b0:	d9800215 	stw	r6,8(sp)
    30b4:	ddc01e15 	stw	r23,120(sp)
    30b8:	dd801d15 	stw	r22,116(sp)
    30bc:	dd401c15 	stw	r21,112(sp)
    30c0:	dd001b15 	stw	r20,108(sp)
    30c4:	dcc01a15 	stw	r19,104(sp)
    30c8:	dc801915 	stw	r18,100(sp)
    30cc:	0003ce00 	call	3ce0 <__unpack_d>
    30d0:	d9000204 	addi	r4,sp,8
    30d4:	800b883a 	mov	r5,r16
    30d8:	0003ce00 	call	3ce0 <__unpack_d>
    30dc:	d9000417 	ldw	r4,16(sp)
    30e0:	00800044 	movi	r2,1
    30e4:	1100102e 	bgeu	r2,r4,3128 <__muldf3+0xac>
    30e8:	d8c00917 	ldw	r3,36(sp)
    30ec:	10c0062e 	bgeu	r2,r3,3108 <__muldf3+0x8c>
    30f0:	00800104 	movi	r2,4
    30f4:	20800a26 	beq	r4,r2,3120 <__muldf3+0xa4>
    30f8:	1880cc26 	beq	r3,r2,342c <__muldf3+0x3b0>
    30fc:	00800084 	movi	r2,2
    3100:	20800926 	beq	r4,r2,3128 <__muldf3+0xac>
    3104:	1880191e 	bne	r3,r2,316c <__muldf3+0xf0>
    3108:	d8c00a17 	ldw	r3,40(sp)
    310c:	d8800517 	ldw	r2,20(sp)
    3110:	8009883a 	mov	r4,r16
    3114:	10c4c03a 	cmpne	r2,r2,r3
    3118:	d8800a15 	stw	r2,40(sp)
    311c:	00000706 	br	313c <__muldf3+0xc0>
    3120:	00800084 	movi	r2,2
    3124:	1880c326 	beq	r3,r2,3434 <__muldf3+0x3b8>
    3128:	d8800517 	ldw	r2,20(sp)
    312c:	d8c00a17 	ldw	r3,40(sp)
    3130:	8809883a 	mov	r4,r17
    3134:	10c4c03a 	cmpne	r2,r2,r3
    3138:	d8800515 	stw	r2,20(sp)
    313c:	00039cc0 	call	39cc <__pack_d>
    3140:	dfc01f17 	ldw	ra,124(sp)
    3144:	ddc01e17 	ldw	r23,120(sp)
    3148:	dd801d17 	ldw	r22,116(sp)
    314c:	dd401c17 	ldw	r21,112(sp)
    3150:	dd001b17 	ldw	r20,108(sp)
    3154:	dcc01a17 	ldw	r19,104(sp)
    3158:	dc801917 	ldw	r18,100(sp)
    315c:	dc401817 	ldw	r17,96(sp)
    3160:	dc001717 	ldw	r16,92(sp)
    3164:	dec02004 	addi	sp,sp,128
    3168:	f800283a 	ret
    316c:	dd800717 	ldw	r22,28(sp)
    3170:	dc800c17 	ldw	r18,48(sp)
    3174:	002b883a 	mov	r21,zero
    3178:	0023883a 	mov	r17,zero
    317c:	a80b883a 	mov	r5,r21
    3180:	b00d883a 	mov	r6,r22
    3184:	880f883a 	mov	r7,r17
    3188:	ddc00817 	ldw	r23,32(sp)
    318c:	dcc00d17 	ldw	r19,52(sp)
    3190:	9009883a 	mov	r4,r18
    3194:	00022a80 	call	22a8 <__muldi3>
    3198:	001b883a 	mov	r13,zero
    319c:	680f883a 	mov	r7,r13
    31a0:	b009883a 	mov	r4,r22
    31a4:	000b883a 	mov	r5,zero
    31a8:	980d883a 	mov	r6,r19
    31ac:	b82d883a 	mov	r22,r23
    31b0:	002f883a 	mov	r23,zero
    31b4:	db401615 	stw	r13,88(sp)
    31b8:	d8801315 	stw	r2,76(sp)
    31bc:	d8c01415 	stw	r3,80(sp)
    31c0:	dcc01515 	stw	r19,84(sp)
    31c4:	00022a80 	call	22a8 <__muldi3>
    31c8:	b00d883a 	mov	r6,r22
    31cc:	000b883a 	mov	r5,zero
    31d0:	9009883a 	mov	r4,r18
    31d4:	b80f883a 	mov	r7,r23
    31d8:	1021883a 	mov	r16,r2
    31dc:	1823883a 	mov	r17,r3
    31e0:	00022a80 	call	22a8 <__muldi3>
    31e4:	8085883a 	add	r2,r16,r2
    31e8:	140d803a 	cmpltu	r6,r2,r16
    31ec:	88c7883a 	add	r3,r17,r3
    31f0:	30cd883a 	add	r6,r6,r3
    31f4:	1029883a 	mov	r20,r2
    31f8:	302b883a 	mov	r21,r6
    31fc:	da801317 	ldw	r10,76(sp)
    3200:	dac01417 	ldw	r11,80(sp)
    3204:	db001517 	ldw	r12,84(sp)
    3208:	db401617 	ldw	r13,88(sp)
    320c:	3440612e 	bgeu	r6,r17,3394 <__muldf3+0x318>
    3210:	0009883a 	mov	r4,zero
    3214:	5105883a 	add	r2,r10,r4
    3218:	128d803a 	cmpltu	r6,r2,r10
    321c:	5d07883a 	add	r3,r11,r20
    3220:	30cd883a 	add	r6,r6,r3
    3224:	0021883a 	mov	r16,zero
    3228:	04400044 	movi	r17,1
    322c:	1025883a 	mov	r18,r2
    3230:	3027883a 	mov	r19,r6
    3234:	32c06236 	bltu	r6,r11,33c0 <__muldf3+0x344>
    3238:	59807a26 	beq	r11,r6,3424 <__muldf3+0x3a8>
    323c:	680b883a 	mov	r5,r13
    3240:	b80f883a 	mov	r7,r23
    3244:	6009883a 	mov	r4,r12
    3248:	b00d883a 	mov	r6,r22
    324c:	00022a80 	call	22a8 <__muldi3>
    3250:	1009883a 	mov	r4,r2
    3254:	000f883a 	mov	r7,zero
    3258:	1545883a 	add	r2,r2,r21
    325c:	1111803a 	cmpltu	r8,r2,r4
    3260:	19c7883a 	add	r3,r3,r7
    3264:	40c7883a 	add	r3,r8,r3
    3268:	88cb883a 	add	r5,r17,r3
    326c:	d8c00617 	ldw	r3,24(sp)
    3270:	8089883a 	add	r4,r16,r2
    3274:	d8800b17 	ldw	r2,44(sp)
    3278:	18c00104 	addi	r3,r3,4
    327c:	240d803a 	cmpltu	r6,r4,r16
    3280:	10c7883a 	add	r3,r2,r3
    3284:	2013883a 	mov	r9,r4
    3288:	d8800a17 	ldw	r2,40(sp)
    328c:	d9000517 	ldw	r4,20(sp)
    3290:	314d883a 	add	r6,r6,r5
    3294:	3015883a 	mov	r10,r6
    3298:	2088c03a 	cmpne	r4,r4,r2
    329c:	00880034 	movhi	r2,8192
    32a0:	10bfffc4 	addi	r2,r2,-1
    32a4:	d9000f15 	stw	r4,60(sp)
    32a8:	d8c01015 	stw	r3,64(sp)
    32ac:	1180162e 	bgeu	r2,r6,3308 <__muldf3+0x28c>
    32b0:	1811883a 	mov	r8,r3
    32b4:	101f883a 	mov	r15,r2
    32b8:	980497fa 	slli	r2,r19,31
    32bc:	9016d07a 	srli	r11,r18,1
    32c0:	500697fa 	slli	r3,r10,31
    32c4:	480cd07a 	srli	r6,r9,1
    32c8:	500ed07a 	srli	r7,r10,1
    32cc:	12d6b03a 	or	r11,r2,r11
    32d0:	00800044 	movi	r2,1
    32d4:	198cb03a 	or	r6,r3,r6
    32d8:	4888703a 	and	r4,r9,r2
    32dc:	9818d07a 	srli	r12,r19,1
    32e0:	001b883a 	mov	r13,zero
    32e4:	03a00034 	movhi	r14,32768
    32e8:	3013883a 	mov	r9,r6
    32ec:	3815883a 	mov	r10,r7
    32f0:	4091883a 	add	r8,r8,r2
    32f4:	20000226 	beq	r4,zero,3300 <__muldf3+0x284>
    32f8:	5b64b03a 	or	r18,r11,r13
    32fc:	63a6b03a 	or	r19,r12,r14
    3300:	7abfed36 	bltu	r15,r10,32b8 <__muldf3+0x23c>
    3304:	da001015 	stw	r8,64(sp)
    3308:	00840034 	movhi	r2,4096
    330c:	10bfffc4 	addi	r2,r2,-1
    3310:	12801436 	bltu	r2,r10,3364 <__muldf3+0x2e8>
    3314:	da001017 	ldw	r8,64(sp)
    3318:	101f883a 	mov	r15,r2
    331c:	4a45883a 	add	r2,r9,r9
    3320:	124d803a 	cmpltu	r6,r2,r9
    3324:	5287883a 	add	r3,r10,r10
    3328:	9497883a 	add	r11,r18,r18
    332c:	5c8f803a 	cmpltu	r7,r11,r18
    3330:	9cd9883a 	add	r12,r19,r19
    3334:	01000044 	movi	r4,1
    3338:	30cd883a 	add	r6,r6,r3
    333c:	3b0f883a 	add	r7,r7,r12
    3340:	423fffc4 	addi	r8,r8,-1
    3344:	1013883a 	mov	r9,r2
    3348:	3015883a 	mov	r10,r6
    334c:	111ab03a 	or	r13,r2,r4
    3350:	98003016 	blt	r19,zero,3414 <__muldf3+0x398>
    3354:	5825883a 	mov	r18,r11
    3358:	3827883a 	mov	r19,r7
    335c:	7abfef2e 	bgeu	r15,r10,331c <__muldf3+0x2a0>
    3360:	da001015 	stw	r8,64(sp)
    3364:	00803fc4 	movi	r2,255
    3368:	488e703a 	and	r7,r9,r2
    336c:	00802004 	movi	r2,128
    3370:	0007883a 	mov	r3,zero
    3374:	0011883a 	mov	r8,zero
    3378:	38801826 	beq	r7,r2,33dc <__muldf3+0x360>
    337c:	008000c4 	movi	r2,3
    3380:	d9000e04 	addi	r4,sp,56
    3384:	da801215 	stw	r10,72(sp)
    3388:	d8800e15 	stw	r2,56(sp)
    338c:	da401115 	stw	r9,68(sp)
    3390:	003f6a06 	br	313c <__muldf3+0xc0>
    3394:	89802126 	beq	r17,r6,341c <__muldf3+0x3a0>
    3398:	0009883a 	mov	r4,zero
    339c:	5105883a 	add	r2,r10,r4
    33a0:	128d803a 	cmpltu	r6,r2,r10
    33a4:	5d07883a 	add	r3,r11,r20
    33a8:	30cd883a 	add	r6,r6,r3
    33ac:	0021883a 	mov	r16,zero
    33b0:	0023883a 	mov	r17,zero
    33b4:	1025883a 	mov	r18,r2
    33b8:	3027883a 	mov	r19,r6
    33bc:	32ff9e2e 	bgeu	r6,r11,3238 <__muldf3+0x1bc>
    33c0:	00800044 	movi	r2,1
    33c4:	8089883a 	add	r4,r16,r2
    33c8:	240d803a 	cmpltu	r6,r4,r16
    33cc:	344d883a 	add	r6,r6,r17
    33d0:	2021883a 	mov	r16,r4
    33d4:	3023883a 	mov	r17,r6
    33d8:	003f9806 	br	323c <__muldf3+0x1c0>
    33dc:	403fe71e 	bne	r8,zero,337c <__muldf3+0x300>
    33e0:	01004004 	movi	r4,256
    33e4:	4904703a 	and	r2,r9,r4
    33e8:	10c4b03a 	or	r2,r2,r3
    33ec:	103fe31e 	bne	r2,zero,337c <__muldf3+0x300>
    33f0:	94c4b03a 	or	r2,r18,r19
    33f4:	103fe126 	beq	r2,zero,337c <__muldf3+0x300>
    33f8:	49c5883a 	add	r2,r9,r7
    33fc:	1251803a 	cmpltu	r8,r2,r9
    3400:	4291883a 	add	r8,r8,r10
    3404:	013fc004 	movi	r4,-256
    3408:	1112703a 	and	r9,r2,r4
    340c:	4015883a 	mov	r10,r8
    3410:	003fda06 	br	337c <__muldf3+0x300>
    3414:	6813883a 	mov	r9,r13
    3418:	003fce06 	br	3354 <__muldf3+0x2d8>
    341c:	143f7c36 	bltu	r2,r16,3210 <__muldf3+0x194>
    3420:	003fdd06 	br	3398 <__muldf3+0x31c>
    3424:	12bf852e 	bgeu	r2,r10,323c <__muldf3+0x1c0>
    3428:	003fe506 	br	33c0 <__muldf3+0x344>
    342c:	00800084 	movi	r2,2
    3430:	20bf351e 	bne	r4,r2,3108 <__muldf3+0x8c>
    3434:	01000074 	movhi	r4,1
    3438:	2132fc04 	addi	r4,r4,-13328
    343c:	003f3f06 	br	313c <__muldf3+0xc0>

00003440 <__gedf2>:
    3440:	deffef04 	addi	sp,sp,-68
    3444:	dc400f15 	stw	r17,60(sp)
    3448:	dc400404 	addi	r17,sp,16
    344c:	2005883a 	mov	r2,r4
    3450:	2807883a 	mov	r3,r5
    3454:	dc000e15 	stw	r16,56(sp)
    3458:	d809883a 	mov	r4,sp
    345c:	880b883a 	mov	r5,r17
    3460:	dc000904 	addi	r16,sp,36
    3464:	d8c00115 	stw	r3,4(sp)
    3468:	d8800015 	stw	r2,0(sp)
    346c:	d9800215 	stw	r6,8(sp)
    3470:	dfc01015 	stw	ra,64(sp)
    3474:	d9c00315 	stw	r7,12(sp)
    3478:	0003ce00 	call	3ce0 <__unpack_d>
    347c:	d9000204 	addi	r4,sp,8
    3480:	800b883a 	mov	r5,r16
    3484:	0003ce00 	call	3ce0 <__unpack_d>
    3488:	d8800417 	ldw	r2,16(sp)
    348c:	00c00044 	movi	r3,1
    3490:	01bfffc4 	movi	r6,-1
    3494:	1880062e 	bgeu	r3,r2,34b0 <__gedf2+0x70>
    3498:	d8800917 	ldw	r2,36(sp)
    349c:	8809883a 	mov	r4,r17
    34a0:	800b883a 	mov	r5,r16
    34a4:	1880022e 	bgeu	r3,r2,34b0 <__gedf2+0x70>
    34a8:	0003e180 	call	3e18 <__fpcmp_parts_d>
    34ac:	100d883a 	mov	r6,r2
    34b0:	3005883a 	mov	r2,r6
    34b4:	dfc01017 	ldw	ra,64(sp)
    34b8:	dc400f17 	ldw	r17,60(sp)
    34bc:	dc000e17 	ldw	r16,56(sp)
    34c0:	dec01104 	addi	sp,sp,68
    34c4:	f800283a 	ret

000034c8 <__fixdfsi>:
    34c8:	defff804 	addi	sp,sp,-32
    34cc:	2005883a 	mov	r2,r4
    34d0:	2807883a 	mov	r3,r5
    34d4:	d809883a 	mov	r4,sp
    34d8:	d9400204 	addi	r5,sp,8
    34dc:	d8c00115 	stw	r3,4(sp)
    34e0:	d8800015 	stw	r2,0(sp)
    34e4:	dfc00715 	stw	ra,28(sp)
    34e8:	0003ce00 	call	3ce0 <__unpack_d>
    34ec:	d8c00217 	ldw	r3,8(sp)
    34f0:	00800084 	movi	r2,2
    34f4:	1880051e 	bne	r3,r2,350c <__fixdfsi+0x44>
    34f8:	0007883a 	mov	r3,zero
    34fc:	1805883a 	mov	r2,r3
    3500:	dfc00717 	ldw	ra,28(sp)
    3504:	dec00804 	addi	sp,sp,32
    3508:	f800283a 	ret
    350c:	00800044 	movi	r2,1
    3510:	10fff92e 	bgeu	r2,r3,34f8 <__fixdfsi+0x30>
    3514:	00800104 	movi	r2,4
    3518:	18800426 	beq	r3,r2,352c <__fixdfsi+0x64>
    351c:	d8c00417 	ldw	r3,16(sp)
    3520:	183ff516 	blt	r3,zero,34f8 <__fixdfsi+0x30>
    3524:	00800784 	movi	r2,30
    3528:	10c0080e 	bge	r2,r3,354c <__fixdfsi+0x84>
    352c:	d8800317 	ldw	r2,12(sp)
    3530:	1000121e 	bne	r2,zero,357c <__fixdfsi+0xb4>
    3534:	00e00034 	movhi	r3,32768
    3538:	18ffffc4 	addi	r3,r3,-1
    353c:	1805883a 	mov	r2,r3
    3540:	dfc00717 	ldw	ra,28(sp)
    3544:	dec00804 	addi	sp,sp,32
    3548:	f800283a 	ret
    354c:	00800f04 	movi	r2,60
    3550:	10d1c83a 	sub	r8,r2,r3
    3554:	40bff804 	addi	r2,r8,-32
    3558:	d9800517 	ldw	r6,20(sp)
    355c:	d9c00617 	ldw	r7,24(sp)
    3560:	10000816 	blt	r2,zero,3584 <__fixdfsi+0xbc>
    3564:	3888d83a 	srl	r4,r7,r2
    3568:	d8800317 	ldw	r2,12(sp)
    356c:	2007883a 	mov	r3,r4
    3570:	103fe226 	beq	r2,zero,34fc <__fixdfsi+0x34>
    3574:	0107c83a 	sub	r3,zero,r4
    3578:	003fe006 	br	34fc <__fixdfsi+0x34>
    357c:	00e00034 	movhi	r3,32768
    3580:	003fde06 	br	34fc <__fixdfsi+0x34>
    3584:	39c7883a 	add	r3,r7,r7
    3588:	008007c4 	movi	r2,31
    358c:	1205c83a 	sub	r2,r2,r8
    3590:	1886983a 	sll	r3,r3,r2
    3594:	3208d83a 	srl	r4,r6,r8
    3598:	1908b03a 	or	r4,r3,r4
    359c:	003ff206 	br	3568 <__fixdfsi+0xa0>

000035a0 <__make_dp>:
    35a0:	defff904 	addi	sp,sp,-28
    35a4:	d8c00717 	ldw	r3,28(sp)
    35a8:	d9000015 	stw	r4,0(sp)
    35ac:	d809883a 	mov	r4,sp
    35b0:	dfc00515 	stw	ra,20(sp)
    35b4:	d9c00615 	stw	r7,24(sp)
    35b8:	d9400115 	stw	r5,4(sp)
    35bc:	d9800215 	stw	r6,8(sp)
    35c0:	d8c00415 	stw	r3,16(sp)
    35c4:	d9c00315 	stw	r7,12(sp)
    35c8:	00039cc0 	call	39cc <__pack_d>
    35cc:	dfc00517 	ldw	ra,20(sp)
    35d0:	dec00704 	addi	sp,sp,28
    35d4:	f800283a 	ret

000035d8 <udivmodsi4>:
    35d8:	29001b2e 	bgeu	r5,r4,3648 <udivmodsi4+0x70>
    35dc:	28001a16 	blt	r5,zero,3648 <udivmodsi4+0x70>
    35e0:	00800044 	movi	r2,1
    35e4:	0007883a 	mov	r3,zero
    35e8:	01c007c4 	movi	r7,31
    35ec:	00000306 	br	35fc <udivmodsi4+0x24>
    35f0:	19c01326 	beq	r3,r7,3640 <udivmodsi4+0x68>
    35f4:	18c00044 	addi	r3,r3,1
    35f8:	28000416 	blt	r5,zero,360c <udivmodsi4+0x34>
    35fc:	294b883a 	add	r5,r5,r5
    3600:	1085883a 	add	r2,r2,r2
    3604:	293ffa36 	bltu	r5,r4,35f0 <udivmodsi4+0x18>
    3608:	10000d26 	beq	r2,zero,3640 <udivmodsi4+0x68>
    360c:	0007883a 	mov	r3,zero
    3610:	21400236 	bltu	r4,r5,361c <udivmodsi4+0x44>
    3614:	2149c83a 	sub	r4,r4,r5
    3618:	1886b03a 	or	r3,r3,r2
    361c:	1004d07a 	srli	r2,r2,1
    3620:	280ad07a 	srli	r5,r5,1
    3624:	103ffa1e 	bne	r2,zero,3610 <udivmodsi4+0x38>
    3628:	30000226 	beq	r6,zero,3634 <udivmodsi4+0x5c>
    362c:	2005883a 	mov	r2,r4
    3630:	f800283a 	ret
    3634:	1809883a 	mov	r4,r3
    3638:	2005883a 	mov	r2,r4
    363c:	f800283a 	ret
    3640:	0007883a 	mov	r3,zero
    3644:	003ff806 	br	3628 <udivmodsi4+0x50>
    3648:	00800044 	movi	r2,1
    364c:	0007883a 	mov	r3,zero
    3650:	003fef06 	br	3610 <udivmodsi4+0x38>

00003654 <__divsi3>:
    3654:	defffe04 	addi	sp,sp,-8
    3658:	dc000015 	stw	r16,0(sp)
    365c:	dfc00115 	stw	ra,4(sp)
    3660:	0021883a 	mov	r16,zero
    3664:	20000c16 	blt	r4,zero,3698 <__divsi3+0x44>
    3668:	000d883a 	mov	r6,zero
    366c:	28000e16 	blt	r5,zero,36a8 <__divsi3+0x54>
    3670:	00035d80 	call	35d8 <udivmodsi4>
    3674:	1007883a 	mov	r3,r2
    3678:	8005003a 	cmpeq	r2,r16,zero
    367c:	1000011e 	bne	r2,zero,3684 <__divsi3+0x30>
    3680:	00c7c83a 	sub	r3,zero,r3
    3684:	1805883a 	mov	r2,r3
    3688:	dfc00117 	ldw	ra,4(sp)
    368c:	dc000017 	ldw	r16,0(sp)
    3690:	dec00204 	addi	sp,sp,8
    3694:	f800283a 	ret
    3698:	0109c83a 	sub	r4,zero,r4
    369c:	04000044 	movi	r16,1
    36a0:	000d883a 	mov	r6,zero
    36a4:	283ff20e 	bge	r5,zero,3670 <__divsi3+0x1c>
    36a8:	014bc83a 	sub	r5,zero,r5
    36ac:	8021003a 	cmpeq	r16,r16,zero
    36b0:	003fef06 	br	3670 <__divsi3+0x1c>

000036b4 <__modsi3>:
    36b4:	deffff04 	addi	sp,sp,-4
    36b8:	dfc00015 	stw	ra,0(sp)
    36bc:	01800044 	movi	r6,1
    36c0:	2807883a 	mov	r3,r5
    36c4:	20000416 	blt	r4,zero,36d8 <__modsi3+0x24>
    36c8:	28000c16 	blt	r5,zero,36fc <__modsi3+0x48>
    36cc:	dfc00017 	ldw	ra,0(sp)
    36d0:	dec00104 	addi	sp,sp,4
    36d4:	00035d81 	jmpi	35d8 <udivmodsi4>
    36d8:	0109c83a 	sub	r4,zero,r4
    36dc:	28000b16 	blt	r5,zero,370c <__modsi3+0x58>
    36e0:	180b883a 	mov	r5,r3
    36e4:	01800044 	movi	r6,1
    36e8:	00035d80 	call	35d8 <udivmodsi4>
    36ec:	0085c83a 	sub	r2,zero,r2
    36f0:	dfc00017 	ldw	ra,0(sp)
    36f4:	dec00104 	addi	sp,sp,4
    36f8:	f800283a 	ret
    36fc:	014bc83a 	sub	r5,zero,r5
    3700:	dfc00017 	ldw	ra,0(sp)
    3704:	dec00104 	addi	sp,sp,4
    3708:	00035d81 	jmpi	35d8 <udivmodsi4>
    370c:	0147c83a 	sub	r3,zero,r5
    3710:	003ff306 	br	36e0 <__modsi3+0x2c>

00003714 <__udivsi3>:
    3714:	000d883a 	mov	r6,zero
    3718:	00035d81 	jmpi	35d8 <udivmodsi4>

0000371c <__umodsi3>:
    371c:	01800044 	movi	r6,1
    3720:	00035d81 	jmpi	35d8 <udivmodsi4>

00003724 <__clzsi2>:
    3724:	00bfffd4 	movui	r2,65535
    3728:	11000e36 	bltu	r2,r4,3764 <__clzsi2+0x40>
    372c:	00803fc4 	movi	r2,255
    3730:	01400204 	movi	r5,8
    3734:	0007883a 	mov	r3,zero
    3738:	11001036 	bltu	r2,r4,377c <__clzsi2+0x58>
    373c:	000b883a 	mov	r5,zero
    3740:	20c6d83a 	srl	r3,r4,r3
    3744:	00800074 	movhi	r2,1
    3748:	10b30104 	addi	r2,r2,-13308
    374c:	1887883a 	add	r3,r3,r2
    3750:	18800003 	ldbu	r2,0(r3)
    3754:	00c00804 	movi	r3,32
    3758:	2885883a 	add	r2,r5,r2
    375c:	1885c83a 	sub	r2,r3,r2
    3760:	f800283a 	ret
    3764:	01400404 	movi	r5,16
    3768:	00804034 	movhi	r2,256
    376c:	10bfffc4 	addi	r2,r2,-1
    3770:	2807883a 	mov	r3,r5
    3774:	113ff22e 	bgeu	r2,r4,3740 <__clzsi2+0x1c>
    3778:	01400604 	movi	r5,24
    377c:	2807883a 	mov	r3,r5
    3780:	20c6d83a 	srl	r3,r4,r3
    3784:	00800074 	movhi	r2,1
    3788:	10b30104 	addi	r2,r2,-13308
    378c:	1887883a 	add	r3,r3,r2
    3790:	18800003 	ldbu	r2,0(r3)
    3794:	00c00804 	movi	r3,32
    3798:	2885883a 	add	r2,r5,r2
    379c:	1885c83a 	sub	r2,r3,r2
    37a0:	f800283a 	ret

000037a4 <__pack_f>:
    37a4:	20c00017 	ldw	r3,0(r4)
    37a8:	01c00044 	movi	r7,1
    37ac:	21800317 	ldw	r6,12(r4)
    37b0:	21400117 	ldw	r5,4(r4)
    37b4:	38c02d2e 	bgeu	r7,r3,386c <__pack_f+0xc8>
    37b8:	00800104 	movi	r2,4
    37bc:	18802826 	beq	r3,r2,3860 <__pack_f+0xbc>
    37c0:	00800084 	movi	r2,2
    37c4:	18800126 	beq	r3,r2,37cc <__pack_f+0x28>
    37c8:	3000101e 	bne	r6,zero,380c <__pack_f+0x68>
    37cc:	000d883a 	mov	r6,zero
    37d0:	0007883a 	mov	r3,zero
    37d4:	19003fcc 	andi	r4,r3,255
    37d8:	200895fa 	slli	r4,r4,23
    37dc:	00c02034 	movhi	r3,128
    37e0:	18ffffc4 	addi	r3,r3,-1
    37e4:	30c6703a 	and	r3,r6,r3
    37e8:	10a0002c 	andhi	r2,r2,32768
    37ec:	10c4b03a 	or	r2,r2,r3
    37f0:	280a97fa 	slli	r5,r5,31
    37f4:	1104b03a 	or	r2,r2,r4
    37f8:	00e00034 	movhi	r3,32768
    37fc:	18ffffc4 	addi	r3,r3,-1
    3800:	10c4703a 	and	r2,r2,r3
    3804:	1144b03a 	or	r2,r2,r5
    3808:	f800283a 	ret
    380c:	21000217 	ldw	r4,8(r4)
    3810:	00bfe084 	movi	r2,-126
    3814:	20801b16 	blt	r4,r2,3884 <__pack_f+0xe0>
    3818:	00801fc4 	movi	r2,127
    381c:	11001016 	blt	r2,r4,3860 <__pack_f+0xbc>
    3820:	308e703a 	and	r7,r6,r2
    3824:	2087883a 	add	r3,r4,r2
    3828:	00801004 	movi	r2,64
    382c:	38800526 	beq	r7,r2,3844 <__pack_f+0xa0>
    3830:	31800fc4 	addi	r6,r6,63
    3834:	30000716 	blt	r6,zero,3854 <__pack_f+0xb0>
    3838:	300490ba 	slli	r2,r6,2
    383c:	100cd27a 	srli	r6,r2,9
    3840:	003fe406 	br	37d4 <__pack_f+0x30>
    3844:	3080200c 	andi	r2,r6,128
    3848:	103ffa26 	beq	r2,zero,3834 <__pack_f+0x90>
    384c:	31cd883a 	add	r6,r6,r7
    3850:	003ff806 	br	3834 <__pack_f+0x90>
    3854:	300cd07a 	srli	r6,r6,1
    3858:	18c00044 	addi	r3,r3,1
    385c:	003ff606 	br	3838 <__pack_f+0x94>
    3860:	000d883a 	mov	r6,zero
    3864:	00ffffc4 	movi	r3,-1
    3868:	003fda06 	br	37d4 <__pack_f+0x30>
    386c:	31800434 	orhi	r6,r6,16
    3870:	00802034 	movhi	r2,128
    3874:	10bfffc4 	addi	r2,r2,-1
    3878:	308c703a 	and	r6,r6,r2
    387c:	00ffffc4 	movi	r3,-1
    3880:	003fd406 	br	37d4 <__pack_f+0x30>
    3884:	1109c83a 	sub	r4,r2,r4
    3888:	00800644 	movi	r2,25
    388c:	11001216 	blt	r2,r4,38d8 <__pack_f+0x134>
    3890:	3904983a 	sll	r2,r7,r4
    3894:	3106d83a 	srl	r3,r6,r4
    3898:	10bfffc4 	addi	r2,r2,-1
    389c:	3084703a 	and	r2,r6,r2
    38a0:	1004c03a 	cmpne	r2,r2,zero
    38a4:	1886b03a 	or	r3,r3,r2
    38a8:	19001fcc 	andi	r4,r3,127
    38ac:	00801004 	movi	r2,64
    38b0:	20800c26 	beq	r4,r2,38e4 <__pack_f+0x140>
    38b4:	18c00fc4 	addi	r3,r3,63
    38b8:	00900034 	movhi	r2,16384
    38bc:	10bfffc4 	addi	r2,r2,-1
    38c0:	180cd1fa 	srli	r6,r3,7
    38c4:	10c7803a 	cmpltu	r3,r2,r3
    38c8:	00802034 	movhi	r2,128
    38cc:	10bfffc4 	addi	r2,r2,-1
    38d0:	308c703a 	and	r6,r6,r2
    38d4:	003fbf06 	br	37d4 <__pack_f+0x30>
    38d8:	0007883a 	mov	r3,zero
    38dc:	000d883a 	mov	r6,zero
    38e0:	003ff906 	br	38c8 <__pack_f+0x124>
    38e4:	1880200c 	andi	r2,r3,128
    38e8:	10000126 	beq	r2,zero,38f0 <__pack_f+0x14c>
    38ec:	1907883a 	add	r3,r3,r4
    38f0:	180cd1fa 	srli	r6,r3,7
    38f4:	00900034 	movhi	r2,16384
    38f8:	10bfffc4 	addi	r2,r2,-1
    38fc:	10c7803a 	cmpltu	r3,r2,r3
    3900:	003ff106 	br	38c8 <__pack_f+0x124>

00003904 <__unpack_f>:
    3904:	21800017 	ldw	r6,0(r4)
    3908:	00c02034 	movhi	r3,128
    390c:	18ffffc4 	addi	r3,r3,-1
    3910:	3004d5fa 	srli	r2,r6,23
    3914:	3008d7fa 	srli	r4,r6,31
    3918:	30ce703a 	and	r7,r6,r3
    391c:	10c03fcc 	andi	r3,r2,255
    3920:	29000115 	stw	r4,4(r5)
    3924:	1800131e 	bne	r3,zero,3974 <__unpack_f+0x70>
    3928:	38000f26 	beq	r7,zero,3968 <__unpack_f+0x64>
    392c:	380691fa 	slli	r3,r7,7
    3930:	01bfe084 	movi	r6,-126
    3934:	008000c4 	movi	r2,3
    3938:	01100034 	movhi	r4,16384
    393c:	213fffc4 	addi	r4,r4,-1
    3940:	28800015 	stw	r2,0(r5)
    3944:	29800215 	stw	r6,8(r5)
    3948:	20c00536 	bltu	r4,r3,3960 <__unpack_f+0x5c>
    394c:	3005883a 	mov	r2,r6
    3950:	18c7883a 	add	r3,r3,r3
    3954:	10bfffc4 	addi	r2,r2,-1
    3958:	20fffd2e 	bgeu	r4,r3,3950 <__unpack_f+0x4c>
    395c:	28800215 	stw	r2,8(r5)
    3960:	28c00315 	stw	r3,12(r5)
    3964:	f800283a 	ret
    3968:	00800084 	movi	r2,2
    396c:	28800015 	stw	r2,0(r5)
    3970:	f800283a 	ret
    3974:	00803fc4 	movi	r2,255
    3978:	18800826 	beq	r3,r2,399c <__unpack_f+0x98>
    397c:	380491fa 	slli	r2,r7,7
    3980:	18ffe044 	addi	r3,r3,-127
    3984:	28c00215 	stw	r3,8(r5)
    3988:	10900034 	orhi	r2,r2,16384
    398c:	28800315 	stw	r2,12(r5)
    3990:	008000c4 	movi	r2,3
    3994:	28800015 	stw	r2,0(r5)
    3998:	f800283a 	ret
    399c:	3800031e 	bne	r7,zero,39ac <__unpack_f+0xa8>
    39a0:	00800104 	movi	r2,4
    39a4:	28800015 	stw	r2,0(r5)
    39a8:	f800283a 	ret
    39ac:	3080042c 	andhi	r2,r6,16
    39b0:	10000426 	beq	r2,zero,39c4 <__unpack_f+0xc0>
    39b4:	00800044 	movi	r2,1
    39b8:	28800015 	stw	r2,0(r5)
    39bc:	29c00315 	stw	r7,12(r5)
    39c0:	f800283a 	ret
    39c4:	28000015 	stw	zero,0(r5)
    39c8:	003ffc06 	br	39bc <__unpack_f+0xb8>

000039cc <__pack_d>:
    39cc:	20c00017 	ldw	r3,0(r4)
    39d0:	defffd04 	addi	sp,sp,-12
    39d4:	dc000015 	stw	r16,0(sp)
    39d8:	dc800215 	stw	r18,8(sp)
    39dc:	dc400115 	stw	r17,4(sp)
    39e0:	00800044 	movi	r2,1
    39e4:	22000317 	ldw	r8,12(r4)
    39e8:	001f883a 	mov	r15,zero
    39ec:	22400417 	ldw	r9,16(r4)
    39f0:	24000117 	ldw	r16,4(r4)
    39f4:	10c0552e 	bgeu	r2,r3,3b4c <__pack_d+0x180>
    39f8:	00800104 	movi	r2,4
    39fc:	18804f26 	beq	r3,r2,3b3c <__pack_d+0x170>
    3a00:	00800084 	movi	r2,2
    3a04:	18800226 	beq	r3,r2,3a10 <__pack_d+0x44>
    3a08:	4244b03a 	or	r2,r8,r9
    3a0c:	10001a1e 	bne	r2,zero,3a78 <__pack_d+0xac>
    3a10:	000d883a 	mov	r6,zero
    3a14:	000f883a 	mov	r7,zero
    3a18:	0011883a 	mov	r8,zero
    3a1c:	00800434 	movhi	r2,16
    3a20:	10bfffc4 	addi	r2,r2,-1
    3a24:	301d883a 	mov	r14,r6
    3a28:	3884703a 	and	r2,r7,r2
    3a2c:	400a953a 	slli	r5,r8,20
    3a30:	79bffc2c 	andhi	r6,r15,65520
    3a34:	308cb03a 	or	r6,r6,r2
    3a38:	00e00434 	movhi	r3,32784
    3a3c:	18ffffc4 	addi	r3,r3,-1
    3a40:	800497fa 	slli	r2,r16,31
    3a44:	30c6703a 	and	r3,r6,r3
    3a48:	1946b03a 	or	r3,r3,r5
    3a4c:	01600034 	movhi	r5,32768
    3a50:	297fffc4 	addi	r5,r5,-1
    3a54:	194a703a 	and	r5,r3,r5
    3a58:	288ab03a 	or	r5,r5,r2
    3a5c:	2807883a 	mov	r3,r5
    3a60:	7005883a 	mov	r2,r14
    3a64:	dc800217 	ldw	r18,8(sp)
    3a68:	dc400117 	ldw	r17,4(sp)
    3a6c:	dc000017 	ldw	r16,0(sp)
    3a70:	dec00304 	addi	sp,sp,12
    3a74:	f800283a 	ret
    3a78:	21000217 	ldw	r4,8(r4)
    3a7c:	00bf0084 	movi	r2,-1022
    3a80:	20803f16 	blt	r4,r2,3b80 <__pack_d+0x1b4>
    3a84:	0080ffc4 	movi	r2,1023
    3a88:	11002c16 	blt	r2,r4,3b3c <__pack_d+0x170>
    3a8c:	00803fc4 	movi	r2,255
    3a90:	408c703a 	and	r6,r8,r2
    3a94:	00802004 	movi	r2,128
    3a98:	0007883a 	mov	r3,zero
    3a9c:	000f883a 	mov	r7,zero
    3aa0:	2280ffc4 	addi	r10,r4,1023
    3aa4:	30801e26 	beq	r6,r2,3b20 <__pack_d+0x154>
    3aa8:	00801fc4 	movi	r2,127
    3aac:	4089883a 	add	r4,r8,r2
    3ab0:	220d803a 	cmpltu	r6,r4,r8
    3ab4:	324d883a 	add	r6,r6,r9
    3ab8:	2011883a 	mov	r8,r4
    3abc:	3013883a 	mov	r9,r6
    3ac0:	00880034 	movhi	r2,8192
    3ac4:	10bfffc4 	addi	r2,r2,-1
    3ac8:	12400d36 	bltu	r2,r9,3b00 <__pack_d+0x134>
    3acc:	4804963a 	slli	r2,r9,24
    3ad0:	400cd23a 	srli	r6,r8,8
    3ad4:	480ed23a 	srli	r7,r9,8
    3ad8:	013fffc4 	movi	r4,-1
    3adc:	118cb03a 	or	r6,r2,r6
    3ae0:	01400434 	movhi	r5,16
    3ae4:	297fffc4 	addi	r5,r5,-1
    3ae8:	3104703a 	and	r2,r6,r4
    3aec:	3946703a 	and	r3,r7,r5
    3af0:	5201ffcc 	andi	r8,r10,2047
    3af4:	100d883a 	mov	r6,r2
    3af8:	180f883a 	mov	r7,r3
    3afc:	003fc706 	br	3a1c <__pack_d+0x50>
    3b00:	480897fa 	slli	r4,r9,31
    3b04:	4004d07a 	srli	r2,r8,1
    3b08:	4806d07a 	srli	r3,r9,1
    3b0c:	52800044 	addi	r10,r10,1
    3b10:	2084b03a 	or	r2,r4,r2
    3b14:	1011883a 	mov	r8,r2
    3b18:	1813883a 	mov	r9,r3
    3b1c:	003feb06 	br	3acc <__pack_d+0x100>
    3b20:	383fe11e 	bne	r7,zero,3aa8 <__pack_d+0xdc>
    3b24:	01004004 	movi	r4,256
    3b28:	4104703a 	and	r2,r8,r4
    3b2c:	10c4b03a 	or	r2,r2,r3
    3b30:	103fe326 	beq	r2,zero,3ac0 <__pack_d+0xf4>
    3b34:	3005883a 	mov	r2,r6
    3b38:	003fdc06 	br	3aac <__pack_d+0xe0>
    3b3c:	000d883a 	mov	r6,zero
    3b40:	000f883a 	mov	r7,zero
    3b44:	0201ffc4 	movi	r8,2047
    3b48:	003fb406 	br	3a1c <__pack_d+0x50>
    3b4c:	0005883a 	mov	r2,zero
    3b50:	00c00234 	movhi	r3,8
    3b54:	408cb03a 	or	r6,r8,r2
    3b58:	48ceb03a 	or	r7,r9,r3
    3b5c:	013fffc4 	movi	r4,-1
    3b60:	01400434 	movhi	r5,16
    3b64:	297fffc4 	addi	r5,r5,-1
    3b68:	3104703a 	and	r2,r6,r4
    3b6c:	3946703a 	and	r3,r7,r5
    3b70:	100d883a 	mov	r6,r2
    3b74:	180f883a 	mov	r7,r3
    3b78:	0201ffc4 	movi	r8,2047
    3b7c:	003fa706 	br	3a1c <__pack_d+0x50>
    3b80:	1109c83a 	sub	r4,r2,r4
    3b84:	00800e04 	movi	r2,56
    3b88:	11004316 	blt	r2,r4,3c98 <__pack_d+0x2cc>
    3b8c:	21fff804 	addi	r7,r4,-32
    3b90:	38004516 	blt	r7,zero,3ca8 <__pack_d+0x2dc>
    3b94:	49d8d83a 	srl	r12,r9,r7
    3b98:	001b883a 	mov	r13,zero
    3b9c:	0023883a 	mov	r17,zero
    3ba0:	01400044 	movi	r5,1
    3ba4:	0025883a 	mov	r18,zero
    3ba8:	38004716 	blt	r7,zero,3cc8 <__pack_d+0x2fc>
    3bac:	29d6983a 	sll	r11,r5,r7
    3bb0:	0015883a 	mov	r10,zero
    3bb4:	00bfffc4 	movi	r2,-1
    3bb8:	5089883a 	add	r4,r10,r2
    3bbc:	588b883a 	add	r5,r11,r2
    3bc0:	228d803a 	cmpltu	r6,r4,r10
    3bc4:	314b883a 	add	r5,r6,r5
    3bc8:	4104703a 	and	r2,r8,r4
    3bcc:	4946703a 	and	r3,r9,r5
    3bd0:	10c4b03a 	or	r2,r2,r3
    3bd4:	10000226 	beq	r2,zero,3be0 <__pack_d+0x214>
    3bd8:	04400044 	movi	r17,1
    3bdc:	0025883a 	mov	r18,zero
    3be0:	00803fc4 	movi	r2,255
    3be4:	644eb03a 	or	r7,r12,r17
    3be8:	3892703a 	and	r9,r7,r2
    3bec:	00802004 	movi	r2,128
    3bf0:	6c90b03a 	or	r8,r13,r18
    3bf4:	0015883a 	mov	r10,zero
    3bf8:	48801626 	beq	r9,r2,3c54 <__pack_d+0x288>
    3bfc:	01001fc4 	movi	r4,127
    3c00:	3905883a 	add	r2,r7,r4
    3c04:	11cd803a 	cmpltu	r6,r2,r7
    3c08:	320d883a 	add	r6,r6,r8
    3c0c:	100f883a 	mov	r7,r2
    3c10:	00840034 	movhi	r2,4096
    3c14:	10bfffc4 	addi	r2,r2,-1
    3c18:	3011883a 	mov	r8,r6
    3c1c:	0007883a 	mov	r3,zero
    3c20:	11801b36 	bltu	r2,r6,3c90 <__pack_d+0x2c4>
    3c24:	4004963a 	slli	r2,r8,24
    3c28:	3808d23a 	srli	r4,r7,8
    3c2c:	400ad23a 	srli	r5,r8,8
    3c30:	1813883a 	mov	r9,r3
    3c34:	1108b03a 	or	r4,r2,r4
    3c38:	00bfffc4 	movi	r2,-1
    3c3c:	00c00434 	movhi	r3,16
    3c40:	18ffffc4 	addi	r3,r3,-1
    3c44:	208c703a 	and	r6,r4,r2
    3c48:	28ce703a 	and	r7,r5,r3
    3c4c:	4a01ffcc 	andi	r8,r9,2047
    3c50:	003f7206 	br	3a1c <__pack_d+0x50>
    3c54:	503fe91e 	bne	r10,zero,3bfc <__pack_d+0x230>
    3c58:	01004004 	movi	r4,256
    3c5c:	3904703a 	and	r2,r7,r4
    3c60:	0007883a 	mov	r3,zero
    3c64:	10c4b03a 	or	r2,r2,r3
    3c68:	10000626 	beq	r2,zero,3c84 <__pack_d+0x2b8>
    3c6c:	3a45883a 	add	r2,r7,r9
    3c70:	11cd803a 	cmpltu	r6,r2,r7
    3c74:	320d883a 	add	r6,r6,r8
    3c78:	100f883a 	mov	r7,r2
    3c7c:	3011883a 	mov	r8,r6
    3c80:	0007883a 	mov	r3,zero
    3c84:	00840034 	movhi	r2,4096
    3c88:	10bfffc4 	addi	r2,r2,-1
    3c8c:	123fe52e 	bgeu	r2,r8,3c24 <__pack_d+0x258>
    3c90:	00c00044 	movi	r3,1
    3c94:	003fe306 	br	3c24 <__pack_d+0x258>
    3c98:	0009883a 	mov	r4,zero
    3c9c:	0013883a 	mov	r9,zero
    3ca0:	000b883a 	mov	r5,zero
    3ca4:	003fe406 	br	3c38 <__pack_d+0x26c>
    3ca8:	4a47883a 	add	r3,r9,r9
    3cac:	008007c4 	movi	r2,31
    3cb0:	1105c83a 	sub	r2,r2,r4
    3cb4:	1886983a 	sll	r3,r3,r2
    3cb8:	4118d83a 	srl	r12,r8,r4
    3cbc:	491ad83a 	srl	r13,r9,r4
    3cc0:	1b18b03a 	or	r12,r3,r12
    3cc4:	003fb506 	br	3b9c <__pack_d+0x1d0>
    3cc8:	2806d07a 	srli	r3,r5,1
    3ccc:	008007c4 	movi	r2,31
    3cd0:	1105c83a 	sub	r2,r2,r4
    3cd4:	1896d83a 	srl	r11,r3,r2
    3cd8:	2914983a 	sll	r10,r5,r4
    3cdc:	003fb506 	br	3bb4 <__pack_d+0x1e8>

00003ce0 <__unpack_d>:
    3ce0:	20c00117 	ldw	r3,4(r4)
    3ce4:	22400017 	ldw	r9,0(r4)
    3ce8:	00800434 	movhi	r2,16
    3cec:	10bfffc4 	addi	r2,r2,-1
    3cf0:	1808d53a 	srli	r4,r3,20
    3cf4:	180cd7fa 	srli	r6,r3,31
    3cf8:	1894703a 	and	r10,r3,r2
    3cfc:	2201ffcc 	andi	r8,r4,2047
    3d00:	281b883a 	mov	r13,r5
    3d04:	4817883a 	mov	r11,r9
    3d08:	29800115 	stw	r6,4(r5)
    3d0c:	5019883a 	mov	r12,r10
    3d10:	40001e1e 	bne	r8,zero,3d8c <__unpack_d+0xac>
    3d14:	4a84b03a 	or	r2,r9,r10
    3d18:	10001926 	beq	r2,zero,3d80 <__unpack_d+0xa0>
    3d1c:	4804d63a 	srli	r2,r9,24
    3d20:	500c923a 	slli	r6,r10,8
    3d24:	013f0084 	movi	r4,-1022
    3d28:	00c40034 	movhi	r3,4096
    3d2c:	18ffffc4 	addi	r3,r3,-1
    3d30:	118cb03a 	or	r6,r2,r6
    3d34:	008000c4 	movi	r2,3
    3d38:	480a923a 	slli	r5,r9,8
    3d3c:	68800015 	stw	r2,0(r13)
    3d40:	69000215 	stw	r4,8(r13)
    3d44:	19800b36 	bltu	r3,r6,3d74 <__unpack_d+0x94>
    3d48:	200f883a 	mov	r7,r4
    3d4c:	1811883a 	mov	r8,r3
    3d50:	2945883a 	add	r2,r5,r5
    3d54:	1149803a 	cmpltu	r4,r2,r5
    3d58:	3187883a 	add	r3,r6,r6
    3d5c:	20c9883a 	add	r4,r4,r3
    3d60:	100b883a 	mov	r5,r2
    3d64:	200d883a 	mov	r6,r4
    3d68:	39ffffc4 	addi	r7,r7,-1
    3d6c:	413ff82e 	bgeu	r8,r4,3d50 <__unpack_d+0x70>
    3d70:	69c00215 	stw	r7,8(r13)
    3d74:	69800415 	stw	r6,16(r13)
    3d78:	69400315 	stw	r5,12(r13)
    3d7c:	f800283a 	ret
    3d80:	00800084 	movi	r2,2
    3d84:	28800015 	stw	r2,0(r5)
    3d88:	f800283a 	ret
    3d8c:	0081ffc4 	movi	r2,2047
    3d90:	40800f26 	beq	r8,r2,3dd0 <__unpack_d+0xf0>
    3d94:	480cd63a 	srli	r6,r9,24
    3d98:	5006923a 	slli	r3,r10,8
    3d9c:	4804923a 	slli	r2,r9,8
    3da0:	0009883a 	mov	r4,zero
    3da4:	30c6b03a 	or	r3,r6,r3
    3da8:	01440034 	movhi	r5,4096
    3dac:	110cb03a 	or	r6,r2,r4
    3db0:	423f0044 	addi	r8,r8,-1023
    3db4:	194eb03a 	or	r7,r3,r5
    3db8:	008000c4 	movi	r2,3
    3dbc:	69c00415 	stw	r7,16(r13)
    3dc0:	6a000215 	stw	r8,8(r13)
    3dc4:	68800015 	stw	r2,0(r13)
    3dc8:	69800315 	stw	r6,12(r13)
    3dcc:	f800283a 	ret
    3dd0:	4a84b03a 	or	r2,r9,r10
    3dd4:	1000031e 	bne	r2,zero,3de4 <__unpack_d+0x104>
    3dd8:	00800104 	movi	r2,4
    3ddc:	28800015 	stw	r2,0(r5)
    3de0:	f800283a 	ret
    3de4:	0009883a 	mov	r4,zero
    3de8:	01400234 	movhi	r5,8
    3dec:	4904703a 	and	r2,r9,r4
    3df0:	5146703a 	and	r3,r10,r5
    3df4:	10c4b03a 	or	r2,r2,r3
    3df8:	10000526 	beq	r2,zero,3e10 <__unpack_d+0x130>
    3dfc:	00800044 	movi	r2,1
    3e00:	68800015 	stw	r2,0(r13)
    3e04:	6b000415 	stw	r12,16(r13)
    3e08:	6ac00315 	stw	r11,12(r13)
    3e0c:	f800283a 	ret
    3e10:	68000015 	stw	zero,0(r13)
    3e14:	003ffb06 	br	3e04 <__unpack_d+0x124>

00003e18 <__fpcmp_parts_d>:
    3e18:	21800017 	ldw	r6,0(r4)
    3e1c:	00c00044 	movi	r3,1
    3e20:	19800a2e 	bgeu	r3,r6,3e4c <__fpcmp_parts_d+0x34>
    3e24:	28800017 	ldw	r2,0(r5)
    3e28:	1880082e 	bgeu	r3,r2,3e4c <__fpcmp_parts_d+0x34>
    3e2c:	00c00104 	movi	r3,4
    3e30:	30c02626 	beq	r6,r3,3ecc <__fpcmp_parts_d+0xb4>
    3e34:	10c02226 	beq	r2,r3,3ec0 <__fpcmp_parts_d+0xa8>
    3e38:	00c00084 	movi	r3,2
    3e3c:	30c00526 	beq	r6,r3,3e54 <__fpcmp_parts_d+0x3c>
    3e40:	10c0071e 	bne	r2,r3,3e60 <__fpcmp_parts_d+0x48>
    3e44:	20800117 	ldw	r2,4(r4)
    3e48:	1000091e 	bne	r2,zero,3e70 <__fpcmp_parts_d+0x58>
    3e4c:	00800044 	movi	r2,1
    3e50:	f800283a 	ret
    3e54:	10c01a1e 	bne	r2,r3,3ec0 <__fpcmp_parts_d+0xa8>
    3e58:	0005883a 	mov	r2,zero
    3e5c:	f800283a 	ret
    3e60:	22000117 	ldw	r8,4(r4)
    3e64:	28800117 	ldw	r2,4(r5)
    3e68:	40800326 	beq	r8,r2,3e78 <__fpcmp_parts_d+0x60>
    3e6c:	403ff726 	beq	r8,zero,3e4c <__fpcmp_parts_d+0x34>
    3e70:	00bfffc4 	movi	r2,-1
    3e74:	f800283a 	ret
    3e78:	20c00217 	ldw	r3,8(r4)
    3e7c:	28800217 	ldw	r2,8(r5)
    3e80:	10fffa16 	blt	r2,r3,3e6c <__fpcmp_parts_d+0x54>
    3e84:	18800916 	blt	r3,r2,3eac <__fpcmp_parts_d+0x94>
    3e88:	21c00417 	ldw	r7,16(r4)
    3e8c:	28c00417 	ldw	r3,16(r5)
    3e90:	21800317 	ldw	r6,12(r4)
    3e94:	28800317 	ldw	r2,12(r5)
    3e98:	19fff436 	bltu	r3,r7,3e6c <__fpcmp_parts_d+0x54>
    3e9c:	38c00526 	beq	r7,r3,3eb4 <__fpcmp_parts_d+0x9c>
    3ea0:	38c00236 	bltu	r7,r3,3eac <__fpcmp_parts_d+0x94>
    3ea4:	19ffec1e 	bne	r3,r7,3e58 <__fpcmp_parts_d+0x40>
    3ea8:	30bfeb2e 	bgeu	r6,r2,3e58 <__fpcmp_parts_d+0x40>
    3eac:	403fe71e 	bne	r8,zero,3e4c <__fpcmp_parts_d+0x34>
    3eb0:	003fef06 	br	3e70 <__fpcmp_parts_d+0x58>
    3eb4:	11bffa2e 	bgeu	r2,r6,3ea0 <__fpcmp_parts_d+0x88>
    3eb8:	403fe426 	beq	r8,zero,3e4c <__fpcmp_parts_d+0x34>
    3ebc:	003fec06 	br	3e70 <__fpcmp_parts_d+0x58>
    3ec0:	28800117 	ldw	r2,4(r5)
    3ec4:	103fe11e 	bne	r2,zero,3e4c <__fpcmp_parts_d+0x34>
    3ec8:	003fe906 	br	3e70 <__fpcmp_parts_d+0x58>
    3ecc:	11bfdd1e 	bne	r2,r6,3e44 <__fpcmp_parts_d+0x2c>
    3ed0:	28c00117 	ldw	r3,4(r5)
    3ed4:	20800117 	ldw	r2,4(r4)
    3ed8:	1885c83a 	sub	r2,r3,r2
    3edc:	f800283a 	ret

00003ee0 <memcpy>:
    3ee0:	01c003c4 	movi	r7,15
    3ee4:	2007883a 	mov	r3,r4
    3ee8:	3980032e 	bgeu	r7,r6,3ef8 <memcpy+0x18>
    3eec:	2904b03a 	or	r2,r5,r4
    3ef0:	108000cc 	andi	r2,r2,3
    3ef4:	10000926 	beq	r2,zero,3f1c <memcpy+0x3c>
    3ef8:	30000626 	beq	r6,zero,3f14 <memcpy+0x34>
    3efc:	30cd883a 	add	r6,r6,r3
    3f00:	28800003 	ldbu	r2,0(r5)
    3f04:	29400044 	addi	r5,r5,1
    3f08:	18800005 	stb	r2,0(r3)
    3f0c:	18c00044 	addi	r3,r3,1
    3f10:	30fffb1e 	bne	r6,r3,3f00 <memcpy+0x20>
    3f14:	2005883a 	mov	r2,r4
    3f18:	f800283a 	ret
    3f1c:	3811883a 	mov	r8,r7
    3f20:	200f883a 	mov	r7,r4
    3f24:	28c00017 	ldw	r3,0(r5)
    3f28:	31bffc04 	addi	r6,r6,-16
    3f2c:	38c00015 	stw	r3,0(r7)
    3f30:	28800117 	ldw	r2,4(r5)
    3f34:	38800115 	stw	r2,4(r7)
    3f38:	28c00217 	ldw	r3,8(r5)
    3f3c:	38c00215 	stw	r3,8(r7)
    3f40:	28800317 	ldw	r2,12(r5)
    3f44:	29400404 	addi	r5,r5,16
    3f48:	38800315 	stw	r2,12(r7)
    3f4c:	39c00404 	addi	r7,r7,16
    3f50:	41bff436 	bltu	r8,r6,3f24 <memcpy+0x44>
    3f54:	008000c4 	movi	r2,3
    3f58:	1180072e 	bgeu	r2,r6,3f78 <memcpy+0x98>
    3f5c:	1007883a 	mov	r3,r2
    3f60:	28800017 	ldw	r2,0(r5)
    3f64:	31bfff04 	addi	r6,r6,-4
    3f68:	29400104 	addi	r5,r5,4
    3f6c:	38800015 	stw	r2,0(r7)
    3f70:	39c00104 	addi	r7,r7,4
    3f74:	19bffa36 	bltu	r3,r6,3f60 <memcpy+0x80>
    3f78:	3807883a 	mov	r3,r7
    3f7c:	003fde06 	br	3ef8 <memcpy+0x18>

00003f80 <memset>:
    3f80:	008000c4 	movi	r2,3
    3f84:	29403fcc 	andi	r5,r5,255
    3f88:	2007883a 	mov	r3,r4
    3f8c:	1180022e 	bgeu	r2,r6,3f98 <memset+0x18>
    3f90:	2084703a 	and	r2,r4,r2
    3f94:	10000826 	beq	r2,zero,3fb8 <memset+0x38>
    3f98:	30000526 	beq	r6,zero,3fb0 <memset+0x30>
    3f9c:	2805883a 	mov	r2,r5
    3fa0:	30cd883a 	add	r6,r6,r3
    3fa4:	18800005 	stb	r2,0(r3)
    3fa8:	18c00044 	addi	r3,r3,1
    3fac:	19bffd1e 	bne	r3,r6,3fa4 <memset+0x24>
    3fb0:	2005883a 	mov	r2,r4
    3fb4:	f800283a 	ret
    3fb8:	2804923a 	slli	r2,r5,8
    3fbc:	020003c4 	movi	r8,15
    3fc0:	200f883a 	mov	r7,r4
    3fc4:	2884b03a 	or	r2,r5,r2
    3fc8:	1006943a 	slli	r3,r2,16
    3fcc:	10c6b03a 	or	r3,r2,r3
    3fd0:	41800a2e 	bgeu	r8,r6,3ffc <memset+0x7c>
    3fd4:	4005883a 	mov	r2,r8
    3fd8:	31bffc04 	addi	r6,r6,-16
    3fdc:	38c00015 	stw	r3,0(r7)
    3fe0:	38c00115 	stw	r3,4(r7)
    3fe4:	38c00215 	stw	r3,8(r7)
    3fe8:	38c00315 	stw	r3,12(r7)
    3fec:	39c00404 	addi	r7,r7,16
    3ff0:	11bff936 	bltu	r2,r6,3fd8 <memset+0x58>
    3ff4:	008000c4 	movi	r2,3
    3ff8:	1180052e 	bgeu	r2,r6,4010 <memset+0x90>
    3ffc:	31bfff04 	addi	r6,r6,-4
    4000:	008000c4 	movi	r2,3
    4004:	38c00015 	stw	r3,0(r7)
    4008:	39c00104 	addi	r7,r7,4
    400c:	11bffb36 	bltu	r2,r6,3ffc <memset+0x7c>
    4010:	3807883a 	mov	r3,r7
    4014:	003fe006 	br	3f98 <memset+0x18>

00004018 <alt_irq_register>:
 */
 
int alt_irq_register (alt_u32 id, 
                      void* context, 
                      alt_isr_func handler)
{
    4018:	deffef04 	addi	sp,sp,-68
    401c:	df001015 	stw	fp,64(sp)
    4020:	df001004 	addi	fp,sp,64
    4024:	e13ffc15 	stw	r4,-16(fp)
    4028:	e17ffd15 	stw	r5,-12(fp)
    402c:	e1bffe15 	stw	r6,-8(fp)
  int rc = -EINVAL;  
    4030:	00bffa84 	movi	r2,-22
    4034:	e0bffb15 	stw	r2,-20(fp)
  alt_irq_context status;

  if (id < ALT_NIRQ)
    4038:	e0bffc17 	ldw	r2,-16(fp)
    403c:	10800828 	cmpgeui	r2,r2,32
    4040:	1000601e 	bne	r2,zero,41c4 <alt_irq_register+0x1ac>
static ALT_INLINE alt_irq_context ALT_ALWAYS_INLINE 
       alt_irq_disable_all (void)
{
  alt_irq_context context;

  NIOS2_READ_STATUS (context);
    4044:	0005303a 	rdctl	r2,status
    4048:	e0bff915 	stw	r2,-28(fp)

  NIOS2_WRITE_STATUS (context & ~NIOS2_STATUS_PIE_MSK);
    404c:	e0fff917 	ldw	r3,-28(fp)
    4050:	00bfff84 	movi	r2,-2
    4054:	1884703a 	and	r2,r3,r2
    4058:	1001703a 	wrctl	status,r2
  
  return context;
    405c:	e0bff917 	ldw	r2,-28(fp)
     * interrupts are disabled while the handler tables are updated to ensure
     * that an interrupt doesn't occur while the tables are in an inconsistant
     * state.
     */

    status = alt_irq_disable_all ();
    4060:	e0bffa15 	stw	r2,-24(fp)

    alt_irq[id].handler = handler;
    4064:	e0bffc17 	ldw	r2,-16(fp)
    4068:	00c01ef4 	movhi	r3,123
    406c:	18c87104 	addi	r3,r3,8644
    4070:	100490fa 	slli	r2,r2,3
    4074:	10c7883a 	add	r3,r2,r3
    4078:	e0bffe17 	ldw	r2,-8(fp)
    407c:	18800015 	stw	r2,0(r3)
    alt_irq[id].context = context;
    4080:	e0bffc17 	ldw	r2,-16(fp)
    4084:	00c01ef4 	movhi	r3,123
    4088:	18c87104 	addi	r3,r3,8644
    408c:	100490fa 	slli	r2,r2,3
    4090:	10c5883a 	add	r2,r2,r3
    4094:	10c00104 	addi	r3,r2,4
    4098:	e0bffd17 	ldw	r2,-12(fp)
    409c:	18800015 	stw	r2,0(r3)

    rc = (handler) ? alt_irq_enable (id): alt_irq_disable (id);
    40a0:	e0bffe17 	ldw	r2,-8(fp)
    40a4:	1005003a 	cmpeq	r2,r2,zero
    40a8:	1000201e 	bne	r2,zero,412c <alt_irq_register+0x114>
    40ac:	e0bffc17 	ldw	r2,-16(fp)
    40b0:	e0bff715 	stw	r2,-36(fp)
static ALT_INLINE alt_irq_context ALT_ALWAYS_INLINE 
       alt_irq_disable_all (void)
{
  alt_irq_context context;

  NIOS2_READ_STATUS (context);
    40b4:	0005303a 	rdctl	r2,status
    40b8:	e0bff615 	stw	r2,-40(fp)

  NIOS2_WRITE_STATUS (context & ~NIOS2_STATUS_PIE_MSK);
    40bc:	e0fff617 	ldw	r3,-40(fp)
    40c0:	00bfff84 	movi	r2,-2
    40c4:	1884703a 	and	r2,r3,r2
    40c8:	1001703a 	wrctl	status,r2
  
  return context;
    40cc:	e0bff617 	ldw	r2,-40(fp)
static ALT_INLINE int ALT_ALWAYS_INLINE alt_irq_enable (alt_u32 id)
{
  alt_irq_context  status;
  extern volatile alt_u32 alt_irq_active;

  status = alt_irq_disable_all ();
    40d0:	e0bff815 	stw	r2,-32(fp)

  alt_irq_active |= (1 << id);
    40d4:	e0fff717 	ldw	r3,-36(fp)
    40d8:	00800044 	movi	r2,1
    40dc:	10c4983a 	sll	r2,r2,r3
    40e0:	1007883a 	mov	r3,r2
    40e4:	00800074 	movhi	r2,1
    40e8:	10834504 	addi	r2,r2,3348
    40ec:	10800017 	ldw	r2,0(r2)
    40f0:	1886b03a 	or	r3,r3,r2
    40f4:	00800074 	movhi	r2,1
    40f8:	10834504 	addi	r2,r2,3348
    40fc:	10c00015 	stw	r3,0(r2)
  NIOS2_WRITE_IENABLE (alt_irq_active);
    4100:	00800074 	movhi	r2,1
    4104:	10834504 	addi	r2,r2,3348
    4108:	10800017 	ldw	r2,0(r2)
    410c:	100170fa 	wrctl	ienable,r2
    4110:	e0bff817 	ldw	r2,-32(fp)
    4114:	e0bff515 	stw	r2,-44(fp)
  status &= ~NIOS2_STATUS_PIE_MSK;
  status |= (context & NIOS2_STATUS_PIE_MSK);
  
  NIOS2_WRITE_STATUS (status);
#else
  NIOS2_WRITE_STATUS (context);
    4118:	e0bff517 	ldw	r2,-44(fp)
    411c:	1001703a 	wrctl	status,r2

  alt_irq_enable_all(status);

  return 0;
    4120:	0005883a 	mov	r2,zero
    4124:	e0bfff15 	stw	r2,-4(fp)
    4128:	00002006 	br	41ac <alt_irq_register+0x194>
    412c:	e0bffc17 	ldw	r2,-16(fp)
    4130:	e0bff315 	stw	r2,-52(fp)
static ALT_INLINE alt_irq_context ALT_ALWAYS_INLINE 
       alt_irq_disable_all (void)
{
  alt_irq_context context;

  NIOS2_READ_STATUS (context);
    4134:	0005303a 	rdctl	r2,status
    4138:	e0bff215 	stw	r2,-56(fp)

  NIOS2_WRITE_STATUS (context & ~NIOS2_STATUS_PIE_MSK);
    413c:	e0fff217 	ldw	r3,-56(fp)
    4140:	00bfff84 	movi	r2,-2
    4144:	1884703a 	and	r2,r3,r2
    4148:	1001703a 	wrctl	status,r2
  
  return context;
    414c:	e0bff217 	ldw	r2,-56(fp)
static ALT_INLINE int ALT_ALWAYS_INLINE alt_irq_disable (alt_u32 id)
{
  alt_irq_context  status;
  extern volatile alt_u32 alt_irq_active;

  status = alt_irq_disable_all ();
    4150:	e0bff415 	stw	r2,-48(fp)

  alt_irq_active &= ~(1 << id);
    4154:	e0fff317 	ldw	r3,-52(fp)
    4158:	00800044 	movi	r2,1
    415c:	10c4983a 	sll	r2,r2,r3
    4160:	0084303a 	nor	r2,zero,r2
    4164:	1007883a 	mov	r3,r2
    4168:	00800074 	movhi	r2,1
    416c:	10834504 	addi	r2,r2,3348
    4170:	10800017 	ldw	r2,0(r2)
    4174:	1886703a 	and	r3,r3,r2
    4178:	00800074 	movhi	r2,1
    417c:	10834504 	addi	r2,r2,3348
    4180:	10c00015 	stw	r3,0(r2)
  NIOS2_WRITE_IENABLE (alt_irq_active);
    4184:	00800074 	movhi	r2,1
    4188:	10834504 	addi	r2,r2,3348
    418c:	10800017 	ldw	r2,0(r2)
    4190:	100170fa 	wrctl	ienable,r2
    4194:	e0bff417 	ldw	r2,-48(fp)
    4198:	e0bff115 	stw	r2,-60(fp)
  status &= ~NIOS2_STATUS_PIE_MSK;
  status |= (context & NIOS2_STATUS_PIE_MSK);
  
  NIOS2_WRITE_STATUS (status);
#else
  NIOS2_WRITE_STATUS (context);
    419c:	e0bff117 	ldw	r2,-60(fp)
    41a0:	1001703a 	wrctl	status,r2

  alt_irq_enable_all(status);

  return 0;
    41a4:	0005883a 	mov	r2,zero
    41a8:	e0bfff15 	stw	r2,-4(fp)
    41ac:	e0bfff17 	ldw	r2,-4(fp)
    41b0:	e0bffb15 	stw	r2,-20(fp)
    41b4:	e0bffa17 	ldw	r2,-24(fp)
    41b8:	e0bff015 	stw	r2,-64(fp)
    41bc:	e0bff017 	ldw	r2,-64(fp)
    41c0:	1001703a 	wrctl	status,r2

    alt_irq_enable_all(status);
  }
  return rc; 
    41c4:	e0bffb17 	ldw	r2,-20(fp)
}
    41c8:	e037883a 	mov	sp,fp
    41cc:	df000017 	ldw	fp,0(sp)
    41d0:	dec00104 	addi	sp,sp,4
    41d4:	f800283a 	ret

000041d8 <alt_load>:
 * there is no bootloader, so this application is responsible for loading to
 * RAM any sections that are required.
 */  

void alt_load (void)
{
    41d8:	defffe04 	addi	sp,sp,-8
    41dc:	dfc00115 	stw	ra,4(sp)
    41e0:	df000015 	stw	fp,0(sp)
    41e4:	d839883a 	mov	fp,sp
  /* 
   * Copy the .rwdata section. 
   */

  alt_load_section (&__flash_rwdata_start, 
    41e8:	01000074 	movhi	r4,1
    41ec:	213b7404 	addi	r4,r4,-4656
    41f0:	01400074 	movhi	r5,1
    41f4:	2973af04 	addi	r5,r5,-12612
    41f8:	01800074 	movhi	r6,1
    41fc:	31bb7404 	addi	r6,r6,-4656
    4200:	00042580 	call	4258 <alt_load_section>

  /*
   * Copy the exception handler.
   */

  alt_load_section (&__flash_exceptions_start, 
    4204:	01000034 	movhi	r4,0
    4208:	21000804 	addi	r4,r4,32
    420c:	01400034 	movhi	r5,0
    4210:	29400804 	addi	r5,r5,32
    4214:	01800034 	movhi	r6,0
    4218:	31806e04 	addi	r6,r6,440
    421c:	00042580 	call	4258 <alt_load_section>

  /*
   * Copy the .rodata section.
   */

  alt_load_section (&__flash_rodata_start, 
    4220:	01000074 	movhi	r4,1
    4224:	2131da04 	addi	r4,r4,-14488
    4228:	01400074 	movhi	r5,1
    422c:	2971da04 	addi	r5,r5,-14488
    4230:	01800074 	movhi	r6,1
    4234:	31b3af04 	addi	r6,r6,-12612
    4238:	00042580 	call	4258 <alt_load_section>
  
  /*
   * Now ensure that the caches are in synch.
   */
  
  alt_dcache_flush_all();
    423c:	00090280 	call	9028 <alt_dcache_flush_all>
  alt_icache_flush_all();
    4240:	00092e00 	call	92e0 <alt_icache_flush_all>
}
    4244:	e037883a 	mov	sp,fp
    4248:	dfc00117 	ldw	ra,4(sp)
    424c:	df000017 	ldw	fp,0(sp)
    4250:	dec00204 	addi	sp,sp,8
    4254:	f800283a 	ret

00004258 <alt_load_section>:
 */

static void ALT_INLINE alt_load_section (alt_u32* from, 
                                         alt_u32* to, 
                                         alt_u32* end)
{
    4258:	defffc04 	addi	sp,sp,-16
    425c:	df000315 	stw	fp,12(sp)
    4260:	df000304 	addi	fp,sp,12
    4264:	e13ffd15 	stw	r4,-12(fp)
    4268:	e17ffe15 	stw	r5,-8(fp)
    426c:	e1bfff15 	stw	r6,-4(fp)
  if (to != from)
    4270:	e0fffe17 	ldw	r3,-8(fp)
    4274:	e0bffd17 	ldw	r2,-12(fp)
    4278:	18800e26 	beq	r3,r2,42b4 <alt_load_section+0x5c>
  {
    while( to != end )
    427c:	00000a06 	br	42a8 <alt_load_section+0x50>
    {
      *to++ = *from++;
    4280:	e0bffd17 	ldw	r2,-12(fp)
    4284:	10c00017 	ldw	r3,0(r2)
    4288:	e0bffe17 	ldw	r2,-8(fp)
    428c:	10c00015 	stw	r3,0(r2)
    4290:	e0bffe17 	ldw	r2,-8(fp)
    4294:	10800104 	addi	r2,r2,4
    4298:	e0bffe15 	stw	r2,-8(fp)
    429c:	e0bffd17 	ldw	r2,-12(fp)
    42a0:	10800104 	addi	r2,r2,4
    42a4:	e0bffd15 	stw	r2,-12(fp)
                                         alt_u32* to, 
                                         alt_u32* end)
{
  if (to != from)
  {
    while( to != end )
    42a8:	e0fffe17 	ldw	r3,-8(fp)
    42ac:	e0bfff17 	ldw	r2,-4(fp)
    42b0:	18bff31e 	bne	r3,r2,4280 <alt_load_section+0x28>
    {
      *to++ = *from++;
    }
  }
}
    42b4:	e037883a 	mov	sp,fp
    42b8:	df000017 	ldw	fp,0(sp)
    42bc:	dec00104 	addi	sp,sp,4
    42c0:	f800283a 	ret

000042c4 <alt_main>:
 * devices/filesystems/components in the system; and call the entry point for
 * the users application, i.e. main().
 */

void alt_main (void)
{
    42c4:	defffd04 	addi	sp,sp,-12
    42c8:	dfc00215 	stw	ra,8(sp)
    42cc:	df000115 	stw	fp,4(sp)
    42d0:	df000104 	addi	fp,sp,4
#endif

  /* ALT LOG - please see HAL/sys/alt_log_printf.h for details */
  ALT_LOG_PRINT_BOOT("[alt_main.c] Entering alt_main, calling alt_irq_init.\r\n");
  /* Initialize the interrupt controller. */
  alt_irq_init (NULL);
    42d4:	0009883a 	mov	r4,zero
    42d8:	00045c80 	call	45c8 <alt_irq_init>
  ALT_LOG_PRINT_BOOT("[alt_main.c] Done OS Init, calling alt_sem_create.\r\n");
  ALT_SEM_CREATE (&alt_fd_list_lock, 1);

  /* Initialize the device drivers/software components. */
  ALT_LOG_PRINT_BOOT("[alt_main.c] Calling alt_sys_init.\r\n");
  alt_sys_init();
    42dc:	00045fc0 	call	45fc <alt_sys_init>
   * devices be present (not equal to /dev/null) and if direct drivers
   * aren't being used.
   */

    ALT_LOG_PRINT_BOOT("[alt_main.c] Redirecting IO.\r\n");
    alt_io_redirect(ALT_STDOUT, ALT_STDIN, ALT_STDERR);
    42e0:	01000074 	movhi	r4,1
    42e4:	21334104 	addi	r4,r4,-13052
    42e8:	01400074 	movhi	r5,1
    42ec:	29734104 	addi	r5,r5,-13052
    42f0:	01800074 	movhi	r6,1
    42f4:	31b34104 	addi	r6,r6,-13052
    42f8:	00093d40 	call	93d4 <alt_io_redirect>
  /* 
   * Call the C++ constructors 
   */

  ALT_LOG_PRINT_BOOT("[alt_main.c] Calling C++ constructors.\r\n");
  _do_ctors ();
    42fc:	00091840 	call	9184 <_do_ctors>
   * redefined as _exit()). This is in the interest of reducing code footprint,
   * in that the atexit() overhead is removed when it's not needed.
   */

  ALT_LOG_PRINT_BOOT("[alt_main.c] Calling atexit.\r\n");
  atexit (_do_dtors);
    4300:	01000074 	movhi	r4,1
    4304:	21247a04 	addi	r4,r4,-28184
    4308:	0009cf80 	call	9cf8 <atexit>
  ALT_LOG_PRINT_BOOT("[alt_main.c] Calling main.\r\n");

#ifdef ALT_NO_EXIT
  main (alt_argc, alt_argv, alt_envp);
#else
  result = main (alt_argc, alt_argv, alt_envp);
    430c:	d127e617 	ldw	r4,-24680(gp)
    4310:	d167e717 	ldw	r5,-24676(gp)
    4314:	d1a7e817 	ldw	r6,-24672(gp)
    4318:	0000ccc0 	call	ccc <main>
    431c:	e0bfff15 	stw	r2,-4(fp)
  close(STDOUT_FILENO);
    4320:	01000044 	movi	r4,1
    4324:	0008ecc0 	call	8ecc <close>
  exit (result);
    4328:	e13fff17 	ldw	r4,-4(fp)
    432c:	0009d0c0 	call	9d0c <exit>

00004330 <alt_printf>:
/* 
 * ALT printf function 
 */
void 
alt_printf(const char* fmt, ... )
{
    4330:	defff204 	addi	sp,sp,-56
    4334:	dfc00a15 	stw	ra,40(sp)
    4338:	df000915 	stw	fp,36(sp)
    433c:	df000904 	addi	fp,sp,36
    4340:	e1400215 	stw	r5,8(fp)
    4344:	e1800315 	stw	r6,12(fp)
    4348:	e1c00415 	stw	r7,16(fp)
    434c:	e13fff15 	stw	r4,-4(fp)
	va_list args;
	va_start(args, fmt);
    4350:	e0800204 	addi	r2,fp,8
    4354:	e0bffe15 	stw	r2,-8(fp)
    const char *w;
    char c;

    /* Process format string. */
    w = fmt;
    4358:	e0bfff17 	ldw	r2,-4(fp)
    435c:	e0bffd15 	stw	r2,-12(fp)
    while ((c = *w++) != 0)
    4360:	00007806 	br	4544 <alt_printf+0x214>
    {
        /* If not a format escape character, just print  */
        /* character.  Otherwise, process format string. */
        if (c != '%')
    4364:	e0bffc07 	ldb	r2,-16(fp)
    4368:	10800960 	cmpeqi	r2,r2,37
    436c:	1000031e 	bne	r2,zero,437c <alt_printf+0x4c>
        {
            alt_putchar(c);
    4370:	e13ffc07 	ldb	r4,-16(fp)
    4374:	00045880 	call	4588 <alt_putchar>
    4378:	00007206 	br	4544 <alt_printf+0x214>
        }
        else
        {
            /* Get format character.  If none     */
            /* available, processing is complete. */
            if ((c = *w++) != 0)
    437c:	e0bffd17 	ldw	r2,-12(fp)
    4380:	10800003 	ldbu	r2,0(r2)
    4384:	e0bffc05 	stb	r2,-16(fp)
    4388:	e0bffc07 	ldb	r2,-16(fp)
    438c:	1004c03a 	cmpne	r2,r2,zero
    4390:	1007883a 	mov	r3,r2
    4394:	e0bffd17 	ldw	r2,-12(fp)
    4398:	10800044 	addi	r2,r2,1
    439c:	e0bffd15 	stw	r2,-12(fp)
    43a0:	18803fcc 	andi	r2,r3,255
    43a4:	1005003a 	cmpeq	r2,r2,zero
    43a8:	1000721e 	bne	r2,zero,4574 <alt_printf+0x244>
            {
                if (c == '%')
    43ac:	e0bffc07 	ldb	r2,-16(fp)
    43b0:	10800958 	cmpnei	r2,r2,37
    43b4:	1000031e 	bne	r2,zero,43c4 <alt_printf+0x94>
                {
                    /* Process "%" escape sequence. */
                    alt_putchar(c);
    43b8:	e13ffc07 	ldb	r4,-16(fp)
    43bc:	00045880 	call	4588 <alt_putchar>
    43c0:	00006006 	br	4544 <alt_printf+0x214>
                } 
                else if (c == 'c')
    43c4:	e0bffc07 	ldb	r2,-16(fp)
    43c8:	108018d8 	cmpnei	r2,r2,99
    43cc:	1000091e 	bne	r2,zero,43f4 <alt_printf+0xc4>
                {
                    int v = va_arg(args, int);
    43d0:	e0fffe17 	ldw	r3,-8(fp)
    43d4:	18800104 	addi	r2,r3,4
    43d8:	e0bffe15 	stw	r2,-8(fp)
    43dc:	1805883a 	mov	r2,r3
    43e0:	10800017 	ldw	r2,0(r2)
    43e4:	e0bffb15 	stw	r2,-20(fp)
                    alt_putchar(v);
    43e8:	e13ffb17 	ldw	r4,-20(fp)
    43ec:	00045880 	call	4588 <alt_putchar>
    43f0:	00005406 	br	4544 <alt_printf+0x214>
                }
                else if (c == 'x')
    43f4:	e0bffc07 	ldb	r2,-16(fp)
    43f8:	10801e18 	cmpnei	r2,r2,120
    43fc:	1000371e 	bne	r2,zero,44dc <alt_printf+0x1ac>
                {
                    /* Process hexadecimal number format. */
                    unsigned long v = va_arg(args, unsigned long);
    4400:	e0fffe17 	ldw	r3,-8(fp)
    4404:	18800104 	addi	r2,r3,4
    4408:	e0bffe15 	stw	r2,-8(fp)
    440c:	1805883a 	mov	r2,r3
    4410:	10800017 	ldw	r2,0(r2)
    4414:	e0bffa15 	stw	r2,-24(fp)
                    unsigned long digit;
                    int digit_shift;

                    /* If the number value is zero, just print and continue. */
                    if (v == 0)
    4418:	e0bffa17 	ldw	r2,-24(fp)
    441c:	1004c03a 	cmpne	r2,r2,zero
    4420:	1000031e 	bne	r2,zero,4430 <alt_printf+0x100>
                    {
                        alt_putchar('0');
    4424:	01000c04 	movi	r4,48
    4428:	00045880 	call	4588 <alt_putchar>
                        continue;
    442c:	00004506 	br	4544 <alt_printf+0x214>
                    }

                    /* Find first non-zero digit. */
                    digit_shift = 28;
    4430:	00800704 	movi	r2,28
    4434:	e0bff815 	stw	r2,-32(fp)
                    while (!(v & (0xF << digit_shift)))
    4438:	00000306 	br	4448 <alt_printf+0x118>
                        digit_shift -= 4;
    443c:	e0bff817 	ldw	r2,-32(fp)
    4440:	10bfff04 	addi	r2,r2,-4
    4444:	e0bff815 	stw	r2,-32(fp)
                        continue;
                    }

                    /* Find first non-zero digit. */
                    digit_shift = 28;
                    while (!(v & (0xF << digit_shift)))
    4448:	00c003c4 	movi	r3,15
    444c:	e0bff817 	ldw	r2,-32(fp)
    4450:	1884983a 	sll	r2,r3,r2
    4454:	1007883a 	mov	r3,r2
    4458:	e0bffa17 	ldw	r2,-24(fp)
    445c:	1884703a 	and	r2,r3,r2
    4460:	1005003a 	cmpeq	r2,r2,zero
    4464:	103ff51e 	bne	r2,zero,443c <alt_printf+0x10c>
                        digit_shift -= 4;

                    /* Print digits. */
                    for (; digit_shift >= 0; digit_shift -= 4)
    4468:	00001806 	br	44cc <alt_printf+0x19c>
                    {
                        digit = (v & (0xF << digit_shift)) >> digit_shift;
    446c:	00c003c4 	movi	r3,15
    4470:	e0bff817 	ldw	r2,-32(fp)
    4474:	1884983a 	sll	r2,r3,r2
    4478:	1007883a 	mov	r3,r2
    447c:	e0bffa17 	ldw	r2,-24(fp)
    4480:	1886703a 	and	r3,r3,r2
    4484:	e0bff817 	ldw	r2,-32(fp)
    4488:	1884d83a 	srl	r2,r3,r2
    448c:	e0bff915 	stw	r2,-28(fp)
                        if (digit <= 9)
    4490:	e0bff917 	ldw	r2,-28(fp)
    4494:	108002a8 	cmpgeui	r2,r2,10
    4498:	1000041e 	bne	r2,zero,44ac <alt_printf+0x17c>
                            c = '0' + digit;
    449c:	e0bff917 	ldw	r2,-28(fp)
    44a0:	10800c04 	addi	r2,r2,48
    44a4:	e0bffc05 	stb	r2,-16(fp)
    44a8:	00000306 	br	44b8 <alt_printf+0x188>
                        else
                            c = 'a' + digit - 10;
    44ac:	e0bff917 	ldw	r2,-28(fp)
    44b0:	108015c4 	addi	r2,r2,87
    44b4:	e0bffc05 	stb	r2,-16(fp)
                        alt_putchar(c);
    44b8:	e13ffc07 	ldb	r4,-16(fp)
    44bc:	00045880 	call	4588 <alt_putchar>
                    digit_shift = 28;
                    while (!(v & (0xF << digit_shift)))
                        digit_shift -= 4;

                    /* Print digits. */
                    for (; digit_shift >= 0; digit_shift -= 4)
    44c0:	e0bff817 	ldw	r2,-32(fp)
    44c4:	10bfff04 	addi	r2,r2,-4
    44c8:	e0bff815 	stw	r2,-32(fp)
    44cc:	e0bff817 	ldw	r2,-32(fp)
    44d0:	1004403a 	cmpge	r2,r2,zero
    44d4:	103fe51e 	bne	r2,zero,446c <alt_printf+0x13c>
    44d8:	00001a06 	br	4544 <alt_printf+0x214>
                        else
                            c = 'a' + digit - 10;
                        alt_putchar(c);
                    }
                }
                else if (c == 's')
    44dc:	e0bffc07 	ldb	r2,-16(fp)
    44e0:	10801cd8 	cmpnei	r2,r2,115
    44e4:	1000171e 	bne	r2,zero,4544 <alt_printf+0x214>
                {
                    /* Process string format. */
                    char *s = va_arg(args, char *);
    44e8:	e0fffe17 	ldw	r3,-8(fp)
    44ec:	18800104 	addi	r2,r3,4
    44f0:	e0bffe15 	stw	r2,-8(fp)
    44f4:	1805883a 	mov	r2,r3
    44f8:	10800017 	ldw	r2,0(r2)
    44fc:	e0bff715 	stw	r2,-36(fp)

                    while(*s)
    4500:	00000906 	br	4528 <alt_printf+0x1f8>
                      alt_putchar(*s++);
    4504:	e0bff717 	ldw	r2,-36(fp)
    4508:	10800003 	ldbu	r2,0(r2)
    450c:	11003fcc 	andi	r4,r2,255
    4510:	2100201c 	xori	r4,r4,128
    4514:	213fe004 	addi	r4,r4,-128
    4518:	e0bff717 	ldw	r2,-36(fp)
    451c:	10800044 	addi	r2,r2,1
    4520:	e0bff715 	stw	r2,-36(fp)
    4524:	00045880 	call	4588 <alt_putchar>
                else if (c == 's')
                {
                    /* Process string format. */
                    char *s = va_arg(args, char *);

                    while(*s)
    4528:	e0bff717 	ldw	r2,-36(fp)
    452c:	10800003 	ldbu	r2,0(r2)
    4530:	10803fcc 	andi	r2,r2,255
    4534:	1080201c 	xori	r2,r2,128
    4538:	10bfe004 	addi	r2,r2,-128
    453c:	1004c03a 	cmpne	r2,r2,zero
    4540:	103ff01e 	bne	r2,zero,4504 <alt_printf+0x1d4>
    const char *w;
    char c;

    /* Process format string. */
    w = fmt;
    while ((c = *w++) != 0)
    4544:	e0bffd17 	ldw	r2,-12(fp)
    4548:	10800003 	ldbu	r2,0(r2)
    454c:	e0bffc05 	stb	r2,-16(fp)
    4550:	e0bffc07 	ldb	r2,-16(fp)
    4554:	1004c03a 	cmpne	r2,r2,zero
    4558:	1007883a 	mov	r3,r2
    455c:	e0bffd17 	ldw	r2,-12(fp)
    4560:	10800044 	addi	r2,r2,1
    4564:	e0bffd15 	stw	r2,-12(fp)
    4568:	18803fcc 	andi	r2,r3,255
    456c:	1004c03a 	cmpne	r2,r2,zero
    4570:	103f7c1e 	bne	r2,zero,4364 <alt_printf+0x34>
            {
                break;
            }
        }
    }
}
    4574:	e037883a 	mov	sp,fp
    4578:	dfc00117 	ldw	ra,4(sp)
    457c:	df000017 	ldw	fp,0(sp)
    4580:	dec00504 	addi	sp,sp,20
    4584:	f800283a 	ret

00004588 <alt_putchar>:
 * Uses the ALT_DRIVER_WRITE() macro to call directly to driver if available.
 * Otherwise, uses newlib provided putchar() routine.
 */
int 
alt_putchar(int c)
{
    4588:	defffd04 	addi	sp,sp,-12
    458c:	dfc00215 	stw	ra,8(sp)
    4590:	df000115 	stw	fp,4(sp)
    4594:	df000104 	addi	fp,sp,4
    4598:	e13fff15 	stw	r4,-4(fp)
    if (ALT_DRIVER_WRITE(ALT_STDOUT_DEV, &c1, 1, 0) == -1) {
        return -1;
    }
    return c;
#else
    return putchar(c);
    459c:	00800074 	movhi	r2,1
    45a0:	10bb6f04 	addi	r2,r2,-4676
    45a4:	10800017 	ldw	r2,0(r2)
    45a8:	11400217 	ldw	r5,8(r2)
    45ac:	e13fff17 	ldw	r4,-4(fp)
    45b0:	0009db80 	call	9db8 <putc>
#endif
}
    45b4:	e037883a 	mov	sp,fp
    45b8:	dfc00117 	ldw	ra,4(sp)
    45bc:	df000017 	ldw	fp,0(sp)
    45c0:	dec00204 	addi	sp,sp,8
    45c4:	f800283a 	ret

000045c8 <alt_irq_init>:
 * The "base" parameter is ignored and only
 * present for backwards-compatibility.
 */

void alt_irq_init ( const void* base )
{
    45c8:	defffd04 	addi	sp,sp,-12
    45cc:	dfc00215 	stw	ra,8(sp)
    45d0:	df000115 	stw	fp,4(sp)
    45d4:	df000104 	addi	fp,sp,4
    45d8:	e13fff15 	stw	r4,-4(fp)
    ALTERA_NIOS2_QSYS_IRQ_INIT ( CPU, CPU);
    45dc:	00099440 	call	9944 <altera_nios2_qsys_irq_init>
 * alt_irq_cpu_enable_interrupts() enables the CPU to start taking interrupts.
 */
static ALT_INLINE void ALT_ALWAYS_INLINE 
       alt_irq_cpu_enable_interrupts ()
{
    NIOS2_WRITE_STATUS(NIOS2_STATUS_PIE_MSK
    45e0:	00800044 	movi	r2,1
    45e4:	1001703a 	wrctl	status,r2
    alt_irq_cpu_enable_interrupts();
}
    45e8:	e037883a 	mov	sp,fp
    45ec:	dfc00117 	ldw	ra,4(sp)
    45f0:	df000017 	ldw	fp,0(sp)
    45f4:	dec00204 	addi	sp,sp,8
    45f8:	f800283a 	ret

000045fc <alt_sys_init>:
 * Initialize the non-interrupt controller devices.
 * Called after alt_irq_init().
 */

void alt_sys_init( void )
{
    45fc:	defffd04 	addi	sp,sp,-12
    4600:	dfc00215 	stw	ra,8(sp)
    4604:	df000115 	stw	fp,4(sp)
    4608:	df000104 	addi	fp,sp,4
    ALTERA_AVALON_TIMER_INIT ( INTERVAL_TIMER, Interval_Timer);
    460c:	01040034 	movhi	r4,4096
    4610:	21080004 	addi	r4,r4,8192
    4614:	000b883a 	mov	r5,zero
    4618:	000d883a 	mov	r6,zero
    461c:	01c00204 	movi	r7,8
    4620:	00055500 	call	5550 <alt_avalon_timer_sc_init>
    ALTERA_AVALON_JTAG_UART_INIT ( JTAG_UART, JTAG_UART);
    4624:	01000074 	movhi	r4,1
    4628:	2133f904 	addi	r4,r4,-12316
    462c:	000b883a 	mov	r5,zero
    4630:	01800204 	movi	r6,8
    4634:	0004b7c0 	call	4b7c <altera_avalon_jtag_uart_init>
    4638:	01000074 	movhi	r4,1
    463c:	2133ef04 	addi	r4,r4,-12356
    4640:	00049fc0 	call	49fc <alt_dev_reg>
    ALTERA_AVALON_SYSID_QSYS_INIT ( SYSID, sysid);
    ALTERA_UP_AVALON_AUDIO_AND_VIDEO_CONFIG_INIT ( AV_CONFIG, AV_Config);
    4644:	01000074 	movhi	r4,1
    4648:	21380704 	addi	r4,r4,-8164
    464c:	00049fc0 	call	49fc <alt_dev_reg>
    ALTERA_UP_AVALON_AUDIO_INIT ( AUDIO, Audio);
    4650:	01000074 	movhi	r4,1
    4654:	21381304 	addi	r4,r4,-8116
    4658:	00049fc0 	call	49fc <alt_dev_reg>
    ALTERA_UP_AVALON_CHARACTER_LCD_INIT ( CHAR_LCD_16X2, Char_LCD_16x2);
    465c:	01000074 	movhi	r4,1
    4660:	21381f04 	addi	r4,r4,-8068
    4664:	0005e940 	call	5e94 <alt_up_character_lcd_init>
    4668:	01000074 	movhi	r4,1
    466c:	21381f04 	addi	r4,r4,-8068
    4670:	00049fc0 	call	49fc <alt_dev_reg>
    ALTERA_UP_AVALON_ETHERNET_INIT ( ETHERNET, Ethernet);
    4674:	01000074 	movhi	r4,1
    4678:	21382a04 	addi	r4,r4,-8024
    467c:	00063140 	call	6314 <alt_up_ethernet_init>
    4680:	01000074 	movhi	r4,1
    4684:	21382a04 	addi	r4,r4,-8024
    4688:	00049fc0 	call	49fc <alt_dev_reg>
    ALTERA_UP_AVALON_IRDA_INIT ( IRDA_UART, IrDA_UART);
    468c:	01000074 	movhi	r4,1
    4690:	21383904 	addi	r4,r4,-7964
    4694:	00049fc0 	call	49fc <alt_dev_reg>
    ALTERA_UP_AVALON_PARALLEL_PORT_INIT ( EXPANSION_JP1, Expansion_JP1);
    4698:	01000074 	movhi	r4,1
    469c:	21384404 	addi	r4,r4,-7920
    46a0:	00049fc0 	call	49fc <alt_dev_reg>
    ALTERA_UP_AVALON_PARALLEL_PORT_INIT ( EXPANSION_JP2, Expansion_JP2);
    46a4:	01000074 	movhi	r4,1
    46a8:	21384f04 	addi	r4,r4,-7876
    46ac:	00049fc0 	call	49fc <alt_dev_reg>
    ALTERA_UP_AVALON_PARALLEL_PORT_INIT ( GREEN_LEDS, Green_LEDs);
    46b0:	01000074 	movhi	r4,1
    46b4:	21385a04 	addi	r4,r4,-7832
    46b8:	00049fc0 	call	49fc <alt_dev_reg>
    ALTERA_UP_AVALON_PARALLEL_PORT_INIT ( HEX3_HEX0, HEX3_HEX0);
    46bc:	01000074 	movhi	r4,1
    46c0:	21386504 	addi	r4,r4,-7788
    46c4:	00049fc0 	call	49fc <alt_dev_reg>
    ALTERA_UP_AVALON_PARALLEL_PORT_INIT ( HEX7_HEX4, HEX7_HEX4);
    46c8:	01000074 	movhi	r4,1
    46cc:	21387004 	addi	r4,r4,-7744
    46d0:	00049fc0 	call	49fc <alt_dev_reg>
    ALTERA_UP_AVALON_PARALLEL_PORT_INIT ( PUSHBUTTONS, Pushbuttons);
    46d4:	01000074 	movhi	r4,1
    46d8:	21387b04 	addi	r4,r4,-7700
    46dc:	00049fc0 	call	49fc <alt_dev_reg>
    ALTERA_UP_AVALON_PARALLEL_PORT_INIT ( RED_LEDS, Red_LEDs);
    46e0:	01000074 	movhi	r4,1
    46e4:	21388604 	addi	r4,r4,-7656
    46e8:	00049fc0 	call	49fc <alt_dev_reg>
    ALTERA_UP_AVALON_PARALLEL_PORT_INIT ( SLIDER_SWITCHES, Slider_Switches);
    46ec:	01000074 	movhi	r4,1
    46f0:	21389104 	addi	r4,r4,-7612
    46f4:	00049fc0 	call	49fc <alt_dev_reg>
    ALTERA_UP_AVALON_PS2_INIT ( PS2_PORT, PS2_Port);
    46f8:	01000074 	movhi	r4,1
    46fc:	21389c04 	addi	r4,r4,-7568
    4700:	0006b9c0 	call	6b9c <alt_up_ps2_init>
    4704:	01000074 	movhi	r4,1
    4708:	21389c04 	addi	r4,r4,-7568
    470c:	00049fc0 	call	49fc <alt_dev_reg>
    ALTERA_UP_AVALON_RS232_INIT ( SERIAL_PORT, Serial_Port);
    4710:	01000074 	movhi	r4,1
    4714:	2138aa04 	addi	r4,r4,-7512
    4718:	00049fc0 	call	49fc <alt_dev_reg>
    ALTERA_UP_AVALON_USB_INIT ( USB, USB);
    471c:	01000074 	movhi	r4,1
    4720:	2138b504 	addi	r4,r4,-7468
    4724:	00049fc0 	call	49fc <alt_dev_reg>
    ALTERA_UP_AVALON_VIDEO_CHARACTER_BUFFER_WITH_DMA_INIT ( VGA_CHAR_BUFFER, VGA_Char_Buffer);
    4728:	00800074 	movhi	r2,1
    472c:	10b8c204 	addi	r2,r2,-7416
    4730:	10800a17 	ldw	r2,40(r2)
    4734:	10800104 	addi	r2,r2,4
    4738:	10800017 	ldw	r2,0(r2)
    473c:	10ffffcc 	andi	r3,r2,65535
    4740:	00800074 	movhi	r2,1
    4744:	10b8c204 	addi	r2,r2,-7416
    4748:	10c00c15 	stw	r3,48(r2)
    474c:	00800074 	movhi	r2,1
    4750:	10b8c204 	addi	r2,r2,-7416
    4754:	10800a17 	ldw	r2,40(r2)
    4758:	10800104 	addi	r2,r2,4
    475c:	10800017 	ldw	r2,0(r2)
    4760:	1005d43a 	srai	r2,r2,16
    4764:	10ffffcc 	andi	r3,r2,65535
    4768:	00800074 	movhi	r2,1
    476c:	10b8c204 	addi	r2,r2,-7416
    4770:	10c00d15 	stw	r3,52(r2)
    4774:	00800074 	movhi	r2,1
    4778:	10b8c204 	addi	r2,r2,-7416
    477c:	10800c17 	ldw	r2,48(r2)
    4780:	10801068 	cmpgeui	r2,r2,65
    4784:	1000081e 	bne	r2,zero,47a8 <alt_sys_init+0x1ac>
    4788:	00c00074 	movhi	r3,1
    478c:	18f8c204 	addi	r3,r3,-7416
    4790:	00800fc4 	movi	r2,63
    4794:	18800f15 	stw	r2,60(r3)
    4798:	00c00074 	movhi	r3,1
    479c:	18f8c204 	addi	r3,r3,-7416
    47a0:	00800184 	movi	r2,6
    47a4:	18801015 	stw	r2,64(r3)
    47a8:	00800074 	movhi	r2,1
    47ac:	10b8c204 	addi	r2,r2,-7416
    47b0:	10800d17 	ldw	r2,52(r2)
    47b4:	10800868 	cmpgeui	r2,r2,33
    47b8:	1000041e 	bne	r2,zero,47cc <alt_sys_init+0x1d0>
    47bc:	00c00074 	movhi	r3,1
    47c0:	18f8c204 	addi	r3,r3,-7416
    47c4:	008007c4 	movi	r2,31
    47c8:	18801115 	stw	r2,68(r3)
    47cc:	01000074 	movhi	r4,1
    47d0:	2138c204 	addi	r4,r4,-7416
    47d4:	00075080 	call	7508 <alt_up_char_buffer_init>
    47d8:	01000074 	movhi	r4,1
    47dc:	2138c204 	addi	r4,r4,-7416
    47e0:	00049fc0 	call	49fc <alt_dev_reg>
    ALTERA_UP_AVALON_VIDEO_PIXEL_BUFFER_DMA_INIT ( VGA_PIXEL_BUFFER, VGA_Pixel_Buffer);
    47e4:	00800074 	movhi	r2,1
    47e8:	10b8d404 	addi	r2,r2,-7344
    47ec:	10800a17 	ldw	r2,40(r2)
    47f0:	10800017 	ldw	r2,0(r2)
    47f4:	1007883a 	mov	r3,r2
    47f8:	00800074 	movhi	r2,1
    47fc:	10b8d404 	addi	r2,r2,-7344
    4800:	10c00b15 	stw	r3,44(r2)
    4804:	00800074 	movhi	r2,1
    4808:	10b8d404 	addi	r2,r2,-7344
    480c:	10800a17 	ldw	r2,40(r2)
    4810:	10800104 	addi	r2,r2,4
    4814:	10800017 	ldw	r2,0(r2)
    4818:	1007883a 	mov	r3,r2
    481c:	00800074 	movhi	r2,1
    4820:	10b8d404 	addi	r2,r2,-7344
    4824:	10c00c15 	stw	r3,48(r2)
    4828:	00800074 	movhi	r2,1
    482c:	10b8d404 	addi	r2,r2,-7344
    4830:	10800a17 	ldw	r2,40(r2)
    4834:	10800204 	addi	r2,r2,8
    4838:	10800017 	ldw	r2,0(r2)
    483c:	10ffffcc 	andi	r3,r2,65535
    4840:	00800074 	movhi	r2,1
    4844:	10b8d404 	addi	r2,r2,-7344
    4848:	10c00f15 	stw	r3,60(r2)
    484c:	00800074 	movhi	r2,1
    4850:	10b8d404 	addi	r2,r2,-7344
    4854:	10800a17 	ldw	r2,40(r2)
    4858:	10800204 	addi	r2,r2,8
    485c:	10800017 	ldw	r2,0(r2)
    4860:	1005d43a 	srai	r2,r2,16
    4864:	10ffffcc 	andi	r3,r2,65535
    4868:	00800074 	movhi	r2,1
    486c:	10b8d404 	addi	r2,r2,-7344
    4870:	10c01015 	stw	r3,64(r2)
    4874:	00800074 	movhi	r2,1
    4878:	10b8d404 	addi	r2,r2,-7344
    487c:	10800a17 	ldw	r2,40(r2)
    4880:	10800304 	addi	r2,r2,12
    4884:	10800017 	ldw	r2,0(r2)
    4888:	1005d07a 	srai	r2,r2,1
    488c:	10c0004c 	andi	r3,r2,1
    4890:	00800074 	movhi	r2,1
    4894:	10b8d404 	addi	r2,r2,-7344
    4898:	10c00d15 	stw	r3,52(r2)
    489c:	00800074 	movhi	r2,1
    48a0:	10b8d404 	addi	r2,r2,-7344
    48a4:	10800a17 	ldw	r2,40(r2)
    48a8:	10800304 	addi	r2,r2,12
    48ac:	10800017 	ldw	r2,0(r2)
    48b0:	1005d13a 	srai	r2,r2,4
    48b4:	10c003cc 	andi	r3,r2,15
    48b8:	00800074 	movhi	r2,1
    48bc:	10b8d404 	addi	r2,r2,-7344
    48c0:	10c00e15 	stw	r3,56(r2)
    48c4:	00800074 	movhi	r2,1
    48c8:	10b8d404 	addi	r2,r2,-7344
    48cc:	10800a17 	ldw	r2,40(r2)
    48d0:	10800304 	addi	r2,r2,12
    48d4:	10800017 	ldw	r2,0(r2)
    48d8:	1005d43a 	srai	r2,r2,16
    48dc:	1007883a 	mov	r3,r2
    48e0:	00bfffc4 	movi	r2,-1
    48e4:	1884703a 	and	r2,r3,r2
    48e8:	e0bfff45 	stb	r2,-3(fp)
    48ec:	00800074 	movhi	r2,1
    48f0:	10b8d404 	addi	r2,r2,-7344
    48f4:	10800a17 	ldw	r2,40(r2)
    48f8:	10800304 	addi	r2,r2,12
    48fc:	10800017 	ldw	r2,0(r2)
    4900:	1005d63a 	srai	r2,r2,24
    4904:	1007883a 	mov	r3,r2
    4908:	00bfffc4 	movi	r2,-1
    490c:	1884703a 	and	r2,r3,r2
    4910:	e0bfff05 	stb	r2,-4(fp)
    4914:	00800074 	movhi	r2,1
    4918:	10b8d404 	addi	r2,r2,-7344
    491c:	10800e17 	ldw	r2,56(r2)
    4920:	10800058 	cmpnei	r2,r2,1
    4924:	1000041e 	bne	r2,zero,4938 <alt_sys_init+0x33c>
    4928:	00800074 	movhi	r2,1
    492c:	10b8d404 	addi	r2,r2,-7344
    4930:	10001115 	stw	zero,68(r2)
    4934:	00000e06 	br	4970 <alt_sys_init+0x374>
    4938:	00800074 	movhi	r2,1
    493c:	10b8d404 	addi	r2,r2,-7344
    4940:	10800e17 	ldw	r2,56(r2)
    4944:	10800098 	cmpnei	r2,r2,2
    4948:	1000051e 	bne	r2,zero,4960 <alt_sys_init+0x364>
    494c:	00c00074 	movhi	r3,1
    4950:	18f8d404 	addi	r3,r3,-7344
    4954:	00800044 	movi	r2,1
    4958:	18801115 	stw	r2,68(r3)
    495c:	00000406 	br	4970 <alt_sys_init+0x374>
    4960:	00c00074 	movhi	r3,1
    4964:	18f8d404 	addi	r3,r3,-7344
    4968:	00800084 	movi	r2,2
    496c:	18801115 	stw	r2,68(r3)
    4970:	e0ffff43 	ldbu	r3,-3(fp)
    4974:	00800804 	movi	r2,32
    4978:	10c7c83a 	sub	r3,r2,r3
    497c:	00bfffc4 	movi	r2,-1
    4980:	10c6d83a 	srl	r3,r2,r3
    4984:	00800074 	movhi	r2,1
    4988:	10b8d404 	addi	r2,r2,-7344
    498c:	10c01215 	stw	r3,72(r2)
    4990:	e0ffff43 	ldbu	r3,-3(fp)
    4994:	00800074 	movhi	r2,1
    4998:	10b8d404 	addi	r2,r2,-7344
    499c:	10801117 	ldw	r2,68(r2)
    49a0:	1887883a 	add	r3,r3,r2
    49a4:	00800074 	movhi	r2,1
    49a8:	10b8d404 	addi	r2,r2,-7344
    49ac:	10c01315 	stw	r3,76(r2)
    49b0:	e0ffff03 	ldbu	r3,-4(fp)
    49b4:	00800804 	movi	r2,32
    49b8:	10c7c83a 	sub	r3,r2,r3
    49bc:	00bfffc4 	movi	r2,-1
    49c0:	10c6d83a 	srl	r3,r2,r3
    49c4:	00800074 	movhi	r2,1
    49c8:	10b8d404 	addi	r2,r2,-7344
    49cc:	10c01415 	stw	r3,80(r2)
    49d0:	01000074 	movhi	r4,1
    49d4:	2138d404 	addi	r4,r4,-7344
    49d8:	00049fc0 	call	49fc <alt_dev_reg>
    ALTERA_UP_SD_CARD_AVALON_INTERFACE_INIT ( SD_CARD, SD_Card);
    49dc:	01000074 	movhi	r4,1
    49e0:	2138e904 	addi	r4,r4,-7260
    49e4:	00049fc0 	call	49fc <alt_dev_reg>
}
    49e8:	e037883a 	mov	sp,fp
    49ec:	dfc00117 	ldw	ra,4(sp)
    49f0:	df000017 	ldw	fp,0(sp)
    49f4:	dec00204 	addi	sp,sp,8
    49f8:	f800283a 	ret

000049fc <alt_dev_reg>:
 */

extern int alt_fs_reg  (alt_dev* dev); 

static ALT_INLINE int alt_dev_reg (alt_dev* dev)
{
    49fc:	defffd04 	addi	sp,sp,-12
    4a00:	dfc00215 	stw	ra,8(sp)
    4a04:	df000115 	stw	fp,4(sp)
    4a08:	df000104 	addi	fp,sp,4
    4a0c:	e13fff15 	stw	r4,-4(fp)
  extern alt_llist alt_dev_list;

  return alt_dev_llist_insert ((alt_dev_llist*) dev, &alt_dev_list);
    4a10:	e13fff17 	ldw	r4,-4(fp)
    4a14:	01400074 	movhi	r5,1
    4a18:	297b6904 	addi	r5,r5,-4700
    4a1c:	00090700 	call	9070 <alt_dev_llist_insert>
}
    4a20:	e037883a 	mov	sp,fp
    4a24:	dfc00117 	ldw	ra,4(sp)
    4a28:	df000017 	ldw	fp,0(sp)
    4a2c:	dec00204 	addi	sp,sp,8
    4a30:	f800283a 	ret

00004a34 <altera_avalon_jtag_uart_read_fd>:
 *
 */

int 
altera_avalon_jtag_uart_read_fd(alt_fd* fd, char* buffer, int space)
{
    4a34:	defffa04 	addi	sp,sp,-24
    4a38:	dfc00515 	stw	ra,20(sp)
    4a3c:	df000415 	stw	fp,16(sp)
    4a40:	df000404 	addi	fp,sp,16
    4a44:	e13ffd15 	stw	r4,-12(fp)
    4a48:	e17ffe15 	stw	r5,-8(fp)
    4a4c:	e1bfff15 	stw	r6,-4(fp)
    altera_avalon_jtag_uart_dev* dev = (altera_avalon_jtag_uart_dev*) fd->dev; 
    4a50:	e0bffd17 	ldw	r2,-12(fp)
    4a54:	10800017 	ldw	r2,0(r2)
    4a58:	e0bffc15 	stw	r2,-16(fp)

    return altera_avalon_jtag_uart_read(&dev->state, buffer, space,
    4a5c:	e0bffc17 	ldw	r2,-16(fp)
    4a60:	11000a04 	addi	r4,r2,40
    4a64:	e0bffd17 	ldw	r2,-12(fp)
    4a68:	11c00217 	ldw	r7,8(r2)
    4a6c:	e17ffe17 	ldw	r5,-8(fp)
    4a70:	e1bfff17 	ldw	r6,-4(fp)
    4a74:	00050780 	call	5078 <altera_avalon_jtag_uart_read>
      fd->fd_flags);
}
    4a78:	e037883a 	mov	sp,fp
    4a7c:	dfc00117 	ldw	ra,4(sp)
    4a80:	df000017 	ldw	fp,0(sp)
    4a84:	dec00204 	addi	sp,sp,8
    4a88:	f800283a 	ret

00004a8c <altera_avalon_jtag_uart_write_fd>:

int 
altera_avalon_jtag_uart_write_fd(alt_fd* fd, const char* buffer, int space)
{
    4a8c:	defffa04 	addi	sp,sp,-24
    4a90:	dfc00515 	stw	ra,20(sp)
    4a94:	df000415 	stw	fp,16(sp)
    4a98:	df000404 	addi	fp,sp,16
    4a9c:	e13ffd15 	stw	r4,-12(fp)
    4aa0:	e17ffe15 	stw	r5,-8(fp)
    4aa4:	e1bfff15 	stw	r6,-4(fp)
    altera_avalon_jtag_uart_dev* dev = (altera_avalon_jtag_uart_dev*) fd->dev; 
    4aa8:	e0bffd17 	ldw	r2,-12(fp)
    4aac:	10800017 	ldw	r2,0(r2)
    4ab0:	e0bffc15 	stw	r2,-16(fp)

    return altera_avalon_jtag_uart_write(&dev->state, buffer, space,
    4ab4:	e0bffc17 	ldw	r2,-16(fp)
    4ab8:	11000a04 	addi	r4,r2,40
    4abc:	e0bffd17 	ldw	r2,-12(fp)
    4ac0:	11c00217 	ldw	r7,8(r2)
    4ac4:	e17ffe17 	ldw	r5,-8(fp)
    4ac8:	e1bfff17 	ldw	r6,-4(fp)
    4acc:	000529c0 	call	529c <altera_avalon_jtag_uart_write>
      fd->fd_flags);
}
    4ad0:	e037883a 	mov	sp,fp
    4ad4:	dfc00117 	ldw	ra,4(sp)
    4ad8:	df000017 	ldw	fp,0(sp)
    4adc:	dec00204 	addi	sp,sp,8
    4ae0:	f800283a 	ret

00004ae4 <altera_avalon_jtag_uart_close_fd>:

#ifndef ALTERA_AVALON_JTAG_UART_SMALL

int 
altera_avalon_jtag_uart_close_fd(alt_fd* fd)
{
    4ae4:	defffc04 	addi	sp,sp,-16
    4ae8:	dfc00315 	stw	ra,12(sp)
    4aec:	df000215 	stw	fp,8(sp)
    4af0:	df000204 	addi	fp,sp,8
    4af4:	e13fff15 	stw	r4,-4(fp)
    altera_avalon_jtag_uart_dev* dev = (altera_avalon_jtag_uart_dev*) fd->dev; 
    4af8:	e0bfff17 	ldw	r2,-4(fp)
    4afc:	10800017 	ldw	r2,0(r2)
    4b00:	e0bffe15 	stw	r2,-8(fp)

    return altera_avalon_jtag_uart_close(&dev->state, fd->fd_flags);
    4b04:	e0bffe17 	ldw	r2,-8(fp)
    4b08:	11000a04 	addi	r4,r2,40
    4b0c:	e0bfff17 	ldw	r2,-4(fp)
    4b10:	11400217 	ldw	r5,8(r2)
    4b14:	0004f100 	call	4f10 <altera_avalon_jtag_uart_close>
}
    4b18:	e037883a 	mov	sp,fp
    4b1c:	dfc00117 	ldw	ra,4(sp)
    4b20:	df000017 	ldw	fp,0(sp)
    4b24:	dec00204 	addi	sp,sp,8
    4b28:	f800283a 	ret

00004b2c <altera_avalon_jtag_uart_ioctl_fd>:

int 
altera_avalon_jtag_uart_ioctl_fd(alt_fd* fd, int req, void* arg)
{
    4b2c:	defffa04 	addi	sp,sp,-24
    4b30:	dfc00515 	stw	ra,20(sp)
    4b34:	df000415 	stw	fp,16(sp)
    4b38:	df000404 	addi	fp,sp,16
    4b3c:	e13ffd15 	stw	r4,-12(fp)
    4b40:	e17ffe15 	stw	r5,-8(fp)
    4b44:	e1bfff15 	stw	r6,-4(fp)
    altera_avalon_jtag_uart_dev* dev = (altera_avalon_jtag_uart_dev*) fd->dev;
    4b48:	e0bffd17 	ldw	r2,-12(fp)
    4b4c:	10800017 	ldw	r2,0(r2)
    4b50:	e0bffc15 	stw	r2,-16(fp)

    return altera_avalon_jtag_uart_ioctl(&dev->state, req, arg);
    4b54:	e0bffc17 	ldw	r2,-16(fp)
    4b58:	11000a04 	addi	r4,r2,40
    4b5c:	e17ffe17 	ldw	r5,-8(fp)
    4b60:	e1bfff17 	ldw	r6,-4(fp)
    4b64:	0004f840 	call	4f84 <altera_avalon_jtag_uart_ioctl>
}
    4b68:	e037883a 	mov	sp,fp
    4b6c:	dfc00117 	ldw	ra,4(sp)
    4b70:	df000017 	ldw	fp,0(sp)
    4b74:	dec00204 	addi	sp,sp,8
    4b78:	f800283a 	ret

00004b7c <altera_avalon_jtag_uart_init>:
 * Return 1 on sucessful IRQ register and 0 on failure.
 */

void altera_avalon_jtag_uart_init(altera_avalon_jtag_uart_state* sp, 
                                  int irq_controller_id, int irq)
{
    4b7c:	defffb04 	addi	sp,sp,-20
    4b80:	dfc00415 	stw	ra,16(sp)
    4b84:	df000315 	stw	fp,12(sp)
    4b88:	df000304 	addi	fp,sp,12
    4b8c:	e13ffd15 	stw	r4,-12(fp)
    4b90:	e17ffe15 	stw	r5,-8(fp)
    4b94:	e1bfff15 	stw	r6,-4(fp)
  ALT_FLAG_CREATE(&sp->events, 0);
  ALT_SEM_CREATE(&sp->read_lock, 1);
  ALT_SEM_CREATE(&sp->write_lock, 1);

  /* enable read interrupts at the device */
  sp->irq_enable = ALTERA_AVALON_JTAG_UART_CONTROL_RE_MSK;
    4b98:	e0fffd17 	ldw	r3,-12(fp)
    4b9c:	00800044 	movi	r2,1
    4ba0:	18800815 	stw	r2,32(r3)

  IOWR_ALTERA_AVALON_JTAG_UART_CONTROL(sp->base, sp->irq_enable); 
    4ba4:	e0bffd17 	ldw	r2,-12(fp)
    4ba8:	10800017 	ldw	r2,0(r2)
    4bac:	11000104 	addi	r4,r2,4
    4bb0:	e0bffd17 	ldw	r2,-12(fp)
    4bb4:	10800817 	ldw	r2,32(r2)
    4bb8:	1007883a 	mov	r3,r2
    4bbc:	2005883a 	mov	r2,r4
    4bc0:	10c00035 	stwio	r3,0(r2)
  /* register the interrupt handler */
#ifdef ALT_ENHANCED_INTERRUPT_API_PRESENT
  alt_ic_isr_register(irq_controller_id, irq, altera_avalon_jtag_uart_irq, 
                      sp, NULL);
#else
  alt_irq_register(irq, sp, altera_avalon_jtag_uart_irq);
    4bc4:	e13fff17 	ldw	r4,-4(fp)
    4bc8:	e17ffd17 	ldw	r5,-12(fp)
    4bcc:	01800034 	movhi	r6,0
    4bd0:	31930d04 	addi	r6,r6,19508
    4bd4:	00040180 	call	4018 <alt_irq_register>
#endif  

  /* Register an alarm to go off every second to check for presence of host */
  sp->host_inactive = 0;
    4bd8:	e0bffd17 	ldw	r2,-12(fp)
    4bdc:	10000915 	stw	zero,36(r2)

  if (alt_alarm_start(&sp->alarm, alt_ticks_per_second(), 
    4be0:	e0bffd17 	ldw	r2,-12(fp)
    4be4:	11000204 	addi	r4,r2,8
 * Obtain the system clock rate in ticks/s. 
 */

static ALT_INLINE alt_u32 ALT_ALWAYS_INLINE alt_ticks_per_second (void)
{
  return _alt_tick_rate;
    4be8:	00800074 	movhi	r2,1
    4bec:	10834904 	addi	r2,r2,3364
    4bf0:	10800017 	ldw	r2,0(r2)
    4bf4:	100b883a 	mov	r5,r2
    4bf8:	01800034 	movhi	r6,0
    4bfc:	31939804 	addi	r6,r6,20064
    4c00:	e1fffd17 	ldw	r7,-12(fp)
    4c04:	0008d780 	call	8d78 <alt_alarm_start>
    4c08:	1004403a 	cmpge	r2,r2,zero
    4c0c:	1000041e 	bne	r2,zero,4c20 <altera_avalon_jtag_uart_init+0xa4>
    &altera_avalon_jtag_uart_timeout, sp) < 0)
  {
    /* If we can't set the alarm then record "don't know if host present" 
     * and behave as though the host is present.
     */
    sp->timeout = INT_MAX;
    4c10:	e0fffd17 	ldw	r3,-12(fp)
    4c14:	00a00034 	movhi	r2,32768
    4c18:	10bfffc4 	addi	r2,r2,-1
    4c1c:	18800115 	stw	r2,4(r3)
  }

  /* ALT_LOG - see altera_hal/HAL/inc/sys/alt_log_printf.h */ 
  ALT_LOG_JTAG_UART_ALARM_REGISTER(sp, sp->base);
}
    4c20:	e037883a 	mov	sp,fp
    4c24:	dfc00117 	ldw	ra,4(sp)
    4c28:	df000017 	ldw	fp,0(sp)
    4c2c:	dec00204 	addi	sp,sp,8
    4c30:	f800283a 	ret

00004c34 <altera_avalon_jtag_uart_irq>:
#ifdef ALT_ENHANCED_INTERRUPT_API_PRESENT
static void altera_avalon_jtag_uart_irq(void* context)
#else
static void altera_avalon_jtag_uart_irq(void* context, alt_u32 id)
#endif
{
    4c34:	defff704 	addi	sp,sp,-36
    4c38:	df000815 	stw	fp,32(sp)
    4c3c:	df000804 	addi	fp,sp,32
    4c40:	e13ffe15 	stw	r4,-8(fp)
    4c44:	e17fff15 	stw	r5,-4(fp)
  altera_avalon_jtag_uart_state* sp = (altera_avalon_jtag_uart_state*) context;
    4c48:	e0bffe17 	ldw	r2,-8(fp)
    4c4c:	e0bffd15 	stw	r2,-12(fp)
  unsigned int base = sp->base;
    4c50:	e0bffd17 	ldw	r2,-12(fp)
    4c54:	10800017 	ldw	r2,0(r2)
    4c58:	e0bffc15 	stw	r2,-16(fp)
    4c5c:	00000006 	br	4c60 <altera_avalon_jtag_uart_irq+0x2c>
  /* ALT_LOG - see altera_hal/HAL/inc/sys/alt_log_printf.h */ 
  ALT_LOG_JTAG_UART_ISR_FUNCTION(base, sp);

  for ( ; ; )
  {
    unsigned int control = IORD_ALTERA_AVALON_JTAG_UART_CONTROL(base);
    4c60:	e0bffc17 	ldw	r2,-16(fp)
    4c64:	10800104 	addi	r2,r2,4
    4c68:	10800037 	ldwio	r2,0(r2)
    4c6c:	e0bffb15 	stw	r2,-20(fp)

    /* Return once nothing more to do */
    if ((control & (ALTERA_AVALON_JTAG_UART_CONTROL_RI_MSK | ALTERA_AVALON_JTAG_UART_CONTROL_WI_MSK)) == 0)
    4c70:	e0bffb17 	ldw	r2,-20(fp)
    4c74:	1080c00c 	andi	r2,r2,768
    4c78:	1005003a 	cmpeq	r2,r2,zero
    4c7c:	1000741e 	bne	r2,zero,4e50 <altera_avalon_jtag_uart_irq+0x21c>
      break;

    if (control & ALTERA_AVALON_JTAG_UART_CONTROL_RI_MSK)
    4c80:	e0bffb17 	ldw	r2,-20(fp)
    4c84:	1080400c 	andi	r2,r2,256
    4c88:	1005003a 	cmpeq	r2,r2,zero
    4c8c:	1000351e 	bne	r2,zero,4d64 <altera_avalon_jtag_uart_irq+0x130>
    {
      /* process a read irq.  Start by assuming that there is data in the
       * receive FIFO (otherwise why would we have been interrupted?)
       */
      unsigned int data = 1 << ALTERA_AVALON_JTAG_UART_DATA_RAVAIL_OFST;
    4c90:	00800074 	movhi	r2,1
    4c94:	e0bffa15 	stw	r2,-24(fp)
      for ( ; ; )
      {
        /* Check whether there is space in the buffer.  If not then we must not
         * read any characters from the buffer as they will be lost.
         */
        unsigned int next = (sp->rx_in + 1) % ALTERA_AVALON_JTAG_UART_BUF_LEN;
    4c98:	e0bffd17 	ldw	r2,-12(fp)
    4c9c:	10800a17 	ldw	r2,40(r2)
    4ca0:	10800044 	addi	r2,r2,1
    4ca4:	1081ffcc 	andi	r2,r2,2047
    4ca8:	e0bff915 	stw	r2,-28(fp)
        if (next == sp->rx_out)
    4cac:	e0bffd17 	ldw	r2,-12(fp)
    4cb0:	10c00b17 	ldw	r3,44(r2)
    4cb4:	e0bff917 	ldw	r2,-28(fp)
    4cb8:	18801626 	beq	r3,r2,4d14 <altera_avalon_jtag_uart_irq+0xe0>
          break;

